;/////////////////////////////////////////////////////////////////////////////////
;// Code Generator: BoostC Compiler - http://www.sourceboost.com
;// Version       : 8.01
;// License Type  : Pro License
;// Limitations   : PIC18 max code size:Unlimited, max RAM banks:Unlimited
;/////////////////////////////////////////////////////////////////////////////////

	ORG 0x00000000
0000  EF99F009  	GOTO	_startup
	ORG 0x00000008
0008  EFD7F00A  	GOTO	interrupt
	ORG 0x0000000C
000C            delay_ms_00000
000C            ; { delay_ms ; function begin
000C  53EB      	MOVF delay_ms_00000_arg_del, F, 1
000E  0000      	NOP
0010  E101      	BNZ	label1
0012  0012      	RETURN
0014            label1
0014  0EF9      	MOVLW 0xF9
0016            label2
0016  0000      	NOP
0018  0000      	NOP
001A  0000      	NOP
001C  0000      	NOP
001E  0000      	NOP
0020  0000      	NOP
0022  0000      	NOP
0024  0000      	NOP
0026  0000      	NOP
0028  0000      	NOP
002A  0000      	NOP
002C  0000      	NOP
002E  0000      	NOP
0030  0000      	NOP
0032  0000      	NOP
0034  0000      	NOP
0036  0000      	NOP
0038  0000      	NOP
003A  0000      	NOP
003C  0000      	NOP
003E  0FFF      	ADDLW 0xFF
0040  A4D8      	BTFSS STATUS,Z
0042  D7E9      	BRA	label2
0044  0000      	NOP
0046  0000      	NOP
0048  0000      	NOP
004A  0000      	NOP
004C  0000      	NOP
004E  0000      	NOP
0050  0000      	NOP
0052  0000      	NOP
0054  0000      	NOP
0056  0000      	NOP
0058  0000      	NOP
005A  0000      	NOP
005C  0000      	NOP
005E  0000      	NOP
0060  0000      	NOP
0062  0000      	NOP
0064  0000      	NOP
0066  0000      	NOP
0068  0000      	NOP
006A  0000      	NOP
006C  0000      	NOP
006E  2FEB      	DECFSZ delay_ms_00000_arg_del, F, 1
0070  D7D1      	BRA	label1
0072  0012      	RETURN
0074            ; } delay_ms function end

	ORG 0x00000074
0074            serial_tx__0000D
0074            ; { serial_tx_isr ; function begin
0074  0100      	MOVLB 0x00
0076  51D5      	MOVF gbl_tx_start, W, 1
0078  63D6      	CPFSEQ gbl_tx_end, 1
007A  D001      	BRA	label3
007C  0012      	RETURN
007E            label3
007E  29D5      	INCF gbl_tx_start, W, 1
0080  0102      	MOVLB 0x02
0082  6F44      	MOVWF serial_tx__0000D_1_tx_next, 1
0084  0EFE      	MOVLW 0xFE
0086  6344      	CPFSEQ serial_tx__0000D_1_tx_next, 1
0088  D001      	BRA	label4
008A  6B44      	CLRF serial_tx__0000D_1_tx_next, 1
008C            label4
008C  5144      	MOVF serial_tx__0000D_1_tx_next, W, 1
008E  0100      	MOVLB 0x00
0090  63D6      	CPFSEQ gbl_tx_end, 1
0092  D001      	BRA	label5
0094  989D      	BCF gbl_pie1,4
0096            label5
0096  EE01F000  	LFSR 0x00,  gbl_tx_buffer
009A  50E9      	MOVF FSR0L, W
009C  51D5      	MOVF gbl_tx_start, W, 1
009E  26E9      	ADDWF FSR0L, F
00A0  50EF      	MOVF INDF0, W
00A2  6EAD      	MOVWF gbl_txreg
00A4  0102      	MOVLB 0x02
00A6  5144      	MOVF serial_tx__0000D_1_tx_next, W, 1
00A8  0100      	MOVLB 0x00
00AA  6FD5      	MOVWF gbl_tx_start, 1
00AC  0012      	RETURN
00AE            ; } serial_tx_isr function end

	ORG 0x000000AE
00AE            serial_put_00010
00AE            ; { serial_putc ; function begin
00AE  0100      	MOVLB 0x00
00B0  51D5      	MOVF gbl_tx_start, W, 1
00B2  63D6      	CPFSEQ gbl_tx_end, 1
00B4  D006      	BRA	label6
00B6  A89E      	BTFSS gbl_pir1,4
00B8  D004      	BRA	label6
00BA  0102      	MOVLB 0x02
00BC  5141      	MOVF serial_put_00010_arg_c, W, 1
00BE  6EAD      	MOVWF gbl_txreg
00C0  0012      	RETURN
00C2            label6
00C2  29D6      	INCF gbl_tx_end, W, 1
00C4  0102      	MOVLB 0x02
00C6  6F42      	MOVWF serial_put_00010_1_tx_next, 1
00C8  0EFE      	MOVLW 0xFE
00CA  6342      	CPFSEQ serial_put_00010_1_tx_next, 1
00CC  D001      	BRA	label7
00CE  6B42      	CLRF serial_put_00010_1_tx_next, 1
00D0            label7
00D0  0100      	MOVLB 0x00
00D2  51D5      	MOVF gbl_tx_start, W, 1
00D4  0102      	MOVLB 0x02
00D6  6342      	CPFSEQ serial_put_00010_1_tx_next, 1
00D8  D006      	BRA	label8
00DA  BEF2      	BTFSC gbl_intcon,7
00DC  D7F9      	BRA	label7
00DE  B89E      	BTFSC gbl_pir1,4
00E0  EC3AF000  	CALL serial_tx__0000D
00E4  D7F5      	BRA	label7
00E6            label8
00E6  9143      	BCF serial_put_00010_1_my_store_gie,0, 1
00E8  BEF2      	BTFSC gbl_intcon,7
00EA  8143      	BSF serial_put_00010_1_my_store_gie,0, 1
00EC            label9
00EC  9EF2      	BCF gbl_intcon,7
00EE  BEF2      	BTFSC gbl_intcon,7
00F0  D7FD      	BRA	label9
00F2  EE01F000  	LFSR 0x00,  gbl_tx_buffer
00F6  50E9      	MOVF FSR0L, W
00F8  0100      	MOVLB 0x00
00FA  51D6      	MOVF gbl_tx_end, W, 1
00FC  26E9      	ADDWF FSR0L, F
00FE  0102      	MOVLB 0x02
0100  5141      	MOVF serial_put_00010_arg_c, W, 1
0102  6EEF      	MOVWF INDF0
0104  5142      	MOVF serial_put_00010_1_tx_next, W, 1
0106  0100      	MOVLB 0x00
0108  6FD6      	MOVWF gbl_tx_end, 1
010A  889D      	BSF gbl_pie1,4
010C  0102      	MOVLB 0x02
010E  B143      	BTFSC serial_put_00010_1_my_store_gie,0, 1
0110  8EF2      	BSF gbl_intcon,7
0112  A143      	BTFSS serial_put_00010_1_my_store_gie,0, 1
0114  9EF2      	BCF gbl_intcon,7
0116  0012      	RETURN
0118            ; } serial_putc function end

	ORG 0x00000118
0118            serial_pri_00012
0118            ; { serial_print_str ; function begin
0118  6B40      	CLRF serial_pri_00012_1_count, 1
011A            label10
011A  513F      	MOVF serial_pri_00012_arg_str+D'1', W, 1
011C  6EEA      	MOVWF FSR0H
011E  513E      	MOVF serial_pri_00012_arg_str, W, 1
0120  2540      	ADDWF serial_pri_00012_1_count, W, 1
0122  6EE9      	MOVWF FSR0L
0124  52EF      	MOVF INDF0, F
0126  B4D8      	BTFSC STATUS,Z
0128  0012      	RETURN
012A  513F      	MOVF serial_pri_00012_arg_str+D'1', W, 1
012C  6EEA      	MOVWF FSR0H
012E  513E      	MOVF serial_pri_00012_arg_str, W, 1
0130  2540      	ADDWF serial_pri_00012_1_count, W, 1
0132  6EE9      	MOVWF FSR0L
0134  50EF      	MOVF INDF0, W
0136  6F41      	MOVWF serial_put_00010_arg_c, 1
0138  EC57F000  	CALL serial_put_00010
013C  2B40      	INCF serial_pri_00012_1_count, F, 1
013E  D7ED      	BRA	label10
0140            ; } serial_print_str function end

	ORG 0x00000140
0140            __rem_16_1_00006
0140            ; { __rem_16_16 ; function begin
0140  6B37      	CLRF CompTempVarRet350, 1
0142  6B38      	CLRF CompTempVarRet350+D'1', 1
0144  6B33      	CLRF __rem_16_1_00006_1_c, 1
0146  6B34      	CLRF __rem_16_1_00006_1_c+D'1', 1
0148  6B35      	CLRF __rem_16_1_00006_1_i, 1
014A            label11
014A  0E10      	MOVLW 0x10
014C  1535      	ANDWF __rem_16_1_00006_1_i, W, 1
014E  6F36      	MOVWF CompTempVar352, 1
0150  6736      	TSTFSZ CompTempVar352, 1
0152  0012      	RETURN
0154  90D8      	BCF STATUS,C
0156  3733      	RLCF __rem_16_1_00006_1_c, F, 1
0158  3734      	RLCF __rem_16_1_00006_1_c+D'1', F, 1
015A  372C      	RLCF __rem_16_1_00006_arg_a, F, 1
015C  372D      	RLCF __rem_16_1_00006_arg_a+D'1', F, 1
015E  3737      	RLCF CompTempVarRet350, F, 1
0160  3738      	RLCF CompTempVarRet350+D'1', F, 1
0162  512E      	MOVF __rem_16_1_00006_arg_b, W, 1
0164  5D37      	SUBWF CompTempVarRet350, W, 1
0166  512F      	MOVF __rem_16_1_00006_arg_b+D'1', W, 1
0168  6338      	CPFSEQ CompTempVarRet350+D'1', 1
016A  5D38      	SUBWF CompTempVarRet350+D'1', W, 1
016C  E305      	BNC	label12
016E  512E      	MOVF __rem_16_1_00006_arg_b, W, 1
0170  5F37      	SUBWF CompTempVarRet350, F, 1
0172  512F      	MOVF __rem_16_1_00006_arg_b+D'1', W, 1
0174  5B38      	SUBWFB CompTempVarRet350+D'1', F, 1
0176  8133      	BSF __rem_16_1_00006_1_c,0, 1
0178            label12
0178  2B35      	INCF __rem_16_1_00006_1_i, F, 1
017A  D7E7      	BRA	label11
017C            ; } __rem_16_16 function end

	ORG 0x0000017C
017C            __div_16_1_00005
017C            ; { __div_16_16 ; function begin
017C  6B30      	CLRF __div_16_1_00005_1_r, 1
017E  6B31      	CLRF __div_16_1_00005_1_r+D'1', 1
0180  6B34      	CLRF CompTempVarRet347, 1
0182  6B35      	CLRF CompTempVarRet347+D'1', 1
0184  6B32      	CLRF __div_16_1_00005_1_i, 1
0186            label13
0186  0E10      	MOVLW 0x10
0188  1532      	ANDWF __div_16_1_00005_1_i, W, 1
018A  6F33      	MOVWF CompTempVar349, 1
018C  6733      	TSTFSZ CompTempVar349, 1
018E  0012      	RETURN
0190  90D8      	BCF STATUS,C
0192  3734      	RLCF CompTempVarRet347, F, 1
0194  3735      	RLCF CompTempVarRet347+D'1', F, 1
0196  372C      	RLCF __div_16_1_00005_arg_a, F, 1
0198  372D      	RLCF __div_16_1_00005_arg_a+D'1', F, 1
019A  3730      	RLCF __div_16_1_00005_1_r, F, 1
019C  3731      	RLCF __div_16_1_00005_1_r+D'1', F, 1
019E  512E      	MOVF __div_16_1_00005_arg_b, W, 1
01A0  5D30      	SUBWF __div_16_1_00005_1_r, W, 1
01A2  512F      	MOVF __div_16_1_00005_arg_b+D'1', W, 1
01A4  6331      	CPFSEQ __div_16_1_00005_1_r+D'1', 1
01A6  5D31      	SUBWF __div_16_1_00005_1_r+D'1', W, 1
01A8  E305      	BNC	label14
01AA  512E      	MOVF __div_16_1_00005_arg_b, W, 1
01AC  5F30      	SUBWF __div_16_1_00005_1_r, F, 1
01AE  512F      	MOVF __div_16_1_00005_arg_b+D'1', W, 1
01B0  5B31      	SUBWFB __div_16_1_00005_1_r+D'1', F, 1
01B2  8134      	BSF CompTempVarRet347,0, 1
01B4            label14
01B4  2B32      	INCF __div_16_1_00005_1_i, F, 1
01B6  D7E7      	BRA	label13
01B8            ; } __div_16_16 function end

	ORG 0x000001B8
01B8            usb_send_d_0003D
01B8            ; { usb_send_data_chunk ; function begin
01B8  0104      	MOVLB 0x04
01BA  AF04      	BTFSS gbl_bd0in,7, 1
01BC  D022      	BRA	label15
01BE  0E20      	MOVLW 0x20
01C0  0102      	MOVLB 0x02
01C2  6F1B      	MOVWF CompTempVar938, 1
01C4  6F22      	MOVWF CompTempVar938+D'7', 1
01C6  6F26      	MOVWF CompTempVar938+D'11', 1
01C8  6F2A      	MOVWF CompTempVar938+D'15', 1
01CA  0E21      	MOVLW 0x21
01CC  6F1C      	MOVWF CompTempVar938+D'1', 1
01CE  6F29      	MOVWF CompTempVar938+D'14', 1
01D0  0E27      	MOVLW 0x27
01D2  6F20      	MOVWF CompTempVar938+D'5', 1
01D4  0E64      	MOVLW 0x64
01D6  6F1D      	MOVWF CompTempVar938+D'2', 1
01D8  0E69      	MOVLW 0x69
01DA  6F27      	MOVWF CompTempVar938+D'12', 1
01DC  0E6E      	MOVLW 0x6E
01DE  6F1F      	MOVWF CompTempVar938+D'4', 1
01E0  6F25      	MOVWF CompTempVar938+D'10', 1
01E2  0E6F      	MOVLW 0x6F
01E4  6F1E      	MOVWF CompTempVar938+D'3', 1
01E6  6F23      	MOVWF CompTempVar938+D'8', 1
01E8  0E74      	MOVLW 0x74
01EA  6F21      	MOVWF CompTempVar938+D'6', 1
01EC  6F28      	MOVWF CompTempVar938+D'13', 1
01EE  0E77      	MOVLW 0x77
01F0  6F24      	MOVWF CompTempVar938+D'9', 1
01F2  6B2B      	CLRF CompTempVar938+D'16', 1
01F4  0E02      	MOVLW HIGH(CompTempVar938+D'0')
01F6  6F3F      	MOVWF serial_pri_00012_arg_str+D'1', 1
01F8  0E1B      	MOVLW LOW(CompTempVar938+D'0')
01FA  6F3E      	MOVWF serial_pri_00012_arg_str, 1
01FC  EC8CF000  	CALL serial_pri_00012
0200  0012      	RETURN
0202            label15
0202  0102      	MOVLB 0x02
0204  6B1A      	CLRF usb_send_d_0003D_1_count, 1
0206            label16
0206  0100      	MOVLB 0x00
0208  51DC      	MOVF gbl_delivery_buffer_size, W, 1
020A  0102      	MOVLB 0x02
020C  611A      	CPFSLT usb_send_d_0003D_1_count, 1
020E  D025      	BRA	label19
0210  0100      	MOVLB 0x00
0212  51C7      	MOVF gbl_delivery_bytes_to_send+D'1', W, 1
0214  5DCB      	SUBWF gbl_delivery_bytes_sent+D'1', W, 1
0216  E102      	BNZ	label17
0218  51C6      	MOVF gbl_delivery_bytes_to_send, W, 1
021A  5DCA      	SUBWF gbl_delivery_bytes_sent, W, 1
021C            label17
021C  E21E      	BC	label19
021E  51C9      	MOVF gbl_delivery_bytes_max_send+D'1', W, 1
0220  5DCB      	SUBWF gbl_delivery_bytes_sent+D'1', W, 1
0222  E102      	BNZ	label18
0224  51C8      	MOVF gbl_delivery_bytes_max_send, W, 1
0226  5DCA      	SUBWF gbl_delivery_bytes_sent, W, 1
0228            label18
0228  E218      	BC	label19
022A  51CD      	MOVF gbl_delivery_ptr+D'1', W, 1
022C  6EEA      	MOVWF FSR0H
022E  51CC      	MOVF gbl_delivery_ptr, W, 1
0230  6EE9      	MOVWF FSR0L
0232  50EF      	MOVF INDF0, W
0234  0102      	MOVLB 0x02
0236  6F1B      	MOVWF CompTempVar941, 1
0238  0100      	MOVLB 0x00
023A  51CF      	MOVF gbl_delivery_buffer+D'1', W, 1
023C  6EEA      	MOVWF FSR0H
023E  51CE      	MOVF gbl_delivery_buffer, W, 1
0240  0102      	MOVLB 0x02
0242  251A      	ADDWF usb_send_d_0003D_1_count, W, 1
0244  6EE9      	MOVWF FSR0L
0246  511B      	MOVF CompTempVar941, W, 1
0248  6EEF      	MOVWF INDF0
024A  0100      	MOVLB 0x00
024C  4BCC      	INFSNZ gbl_delivery_ptr, F, 1
024E  2BCD      	INCF gbl_delivery_ptr+D'1', F, 1
0250  4BCA      	INFSNZ gbl_delivery_bytes_sent, F, 1
0252  2BCB      	INCF gbl_delivery_bytes_sent+D'1', F, 1
0254  0102      	MOVLB 0x02
0256  2B1A      	INCF usb_send_d_0003D_1_count, F, 1
0258  D7D6      	BRA	label16
025A            label19
025A  0100      	MOVLB 0x00
025C  51DC      	MOVF gbl_delivery_buffer_size, W, 1
025E  0102      	MOVLB 0x02
0260  611A      	CPFSLT usb_send_d_0003D_1_count, 1
0262  D010      	BRA	label22
0264  0100      	MOVLB 0x00
0266  51C8      	MOVF gbl_delivery_bytes_max_send, W, 1
0268  63CA      	CPFSEQ gbl_delivery_bytes_sent, 1
026A  D004      	BRA	label20
026C  51C9      	MOVF gbl_delivery_bytes_max_send+D'1', W, 1
026E  63CB      	CPFSEQ gbl_delivery_bytes_sent+D'1', 1
0270  D001      	BRA	label20
0272  D006      	BRA	label21
0274            label20
0274  51C6      	MOVF gbl_delivery_bytes_to_send, W, 1
0276  63CA      	CPFSEQ gbl_delivery_bytes_sent, 1
0278  D005      	BRA	label22
027A  51C7      	MOVF gbl_delivery_bytes_to_send+D'1', W, 1
027C  63CB      	CPFSEQ gbl_delivery_bytes_sent+D'1', 1
027E  D002      	BRA	label22
0280            label21
0280  0E05      	MOVLW 0x05
0282  6FDB      	MOVWF gbl_control_mode, 1
0284            label22
0284  0102      	MOVLB 0x02
0286  511A      	MOVF usb_send_d_0003D_1_count, W, 1
0288  0104      	MOVLB 0x04
028A  6F05      	MOVWF gbl_bd0in+D'1', 1
028C  0E05      	MOVLW HIGH(gbl_buffer_0_in+D'0')
028E  6F07      	MOVWF gbl_bd0in+D'3', 1
0290  0E08      	MOVLW LOW(gbl_buffer_0_in+D'0')
0292  6F06      	MOVWF gbl_bd0in+D'2', 1
0294  0E40      	MOVLW 0x40
0296  1B04      	XORWF gbl_bd0in, F, 1
0298  9B04      	BCF gbl_bd0in,5, 1
029A  9904      	BCF gbl_bd0in,4, 1
029C  8704      	BSF gbl_bd0in,3, 1
029E  9504      	BCF gbl_bd0in,2, 1
02A0  9304      	BCF gbl_bd0in,1, 1
02A2  9104      	BCF gbl_bd0in,0, 1
02A4  8F04      	BSF gbl_bd0in,7, 1
02A6  0012      	RETURN
02A8            ; } usb_send_data_chunk function end

	ORG 0x000002A8
02A8            serial_pri_00018
02A8            ; { serial_print_spc ; function begin
02A8  0E20      	MOVLW 0x20
02AA  0102      	MOVLB 0x02
02AC  6F41      	MOVWF serial_put_00010_arg_c, 1
02AE  EC57F000  	CALL serial_put_00010
02B2  0012      	RETURN
02B4            ; } serial_print_spc function end

	ORG 0x000002B4
02B4            serial_pri_00014
02B4            ; { serial_print_int ; function begin
02B4  0E05      	MOVLW 0x05
02B6  6F2B      	MOVWF serial_pri_00014_1_count, 1
02B8  6B2A      	CLRF serial_pri_00014_1_buffer+D'5', 1
02BA            label23
02BA  072B      	DECF serial_pri_00014_1_count, F, 1
02BC  5123      	MOVF serial_pri_00014_arg_i, W, 1
02BE  6F2C      	MOVWF __rem_16_1_00006_arg_a, 1
02C0  5124      	MOVF serial_pri_00014_arg_i+D'1', W, 1
02C2  6F2D      	MOVWF __rem_16_1_00006_arg_a+D'1', 1
02C4  0E0A      	MOVLW 0x0A
02C6  6F2E      	MOVWF __rem_16_1_00006_arg_b, 1
02C8  6B2F      	CLRF __rem_16_1_00006_arg_b+D'1', 1
02CA  ECA0F000  	CALL __rem_16_1_00006
02CE  5137      	MOVF CompTempVarRet350, W, 1
02D0  6F30      	MOVWF CompTempVar825, 1
02D2  5138      	MOVF CompTempVarRet350+D'1', W, 1
02D4  6F31      	MOVWF CompTempVar826, 1
02D6  5130      	MOVF CompTempVar825, W, 1
02D8  0F30      	ADDLW 0x30
02DA  6F32      	MOVWF CompTempVar827, 1
02DC  EE02F025  	LFSR 0x00,  serial_pri_00014_1_buffer
02E0  50E9      	MOVF FSR0L, W
02E2  512B      	MOVF serial_pri_00014_1_count, W, 1
02E4  26E9      	ADDWF FSR0L, F
02E6  5132      	MOVF CompTempVar827, W, 1
02E8  6EEF      	MOVWF INDF0
02EA  5123      	MOVF serial_pri_00014_arg_i, W, 1
02EC  6F2C      	MOVWF __div_16_1_00005_arg_a, 1
02EE  5124      	MOVF serial_pri_00014_arg_i+D'1', W, 1
02F0  6F2D      	MOVWF __div_16_1_00005_arg_a+D'1', 1
02F2  0E0A      	MOVLW 0x0A
02F4  6F2E      	MOVWF __div_16_1_00005_arg_b, 1
02F6  6B2F      	CLRF __div_16_1_00005_arg_b+D'1', 1
02F8  ECBEF000  	CALL __div_16_1_00005
02FC  5134      	MOVF CompTempVarRet347, W, 1
02FE  6F23      	MOVWF serial_pri_00014_arg_i, 1
0300  5135      	MOVF CompTempVarRet347+D'1', W, 1
0302  6F24      	MOVWF serial_pri_00014_arg_i+D'1', 1
0304  0E00      	MOVLW 0x00
0306  6523      	CPFSGT serial_pri_00014_arg_i, 1
0308  6724      	TSTFSZ serial_pri_00014_arg_i+D'1', 1
030A  D7D7      	BRA	label23
030C            label24
030C  EE02F025  	LFSR 0x00,  serial_pri_00014_1_buffer
0310  50E9      	MOVF FSR0L, W
0312  512B      	MOVF serial_pri_00014_1_count, W, 1
0314  26E9      	ADDWF FSR0L, F
0316  52EF      	MOVF INDF0, F
0318  B4D8      	BTFSC STATUS,Z
031A  0012      	RETURN
031C  EE02F025  	LFSR 0x00,  serial_pri_00014_1_buffer
0320  50E9      	MOVF FSR0L, W
0322  512B      	MOVF serial_pri_00014_1_count, W, 1
0324  26E9      	ADDWF FSR0L, F
0326  50EF      	MOVF INDF0, W
0328  6F41      	MOVWF serial_put_00010_arg_c, 1
032A  EC57F000  	CALL serial_put_00010
032E  2B2B      	INCF serial_pri_00014_1_count, F, 1
0330  D7ED      	BRA	label24
0332            ; } serial_print_int function end

	ORG 0x00000332
0332            usb_stall__00020
0332            ; { usb_stall_ep0 ; function begin
0332  0104      	MOVLB 0x04
0334  8504      	BSF gbl_bd0in,2, 1
0336  8F04      	BSF gbl_bd0in,7, 1
0338  8500      	BSF gbl_bd0out,2, 1
033A  8F00      	BSF gbl_bd0out,7, 1
033C  0012      	RETURN
033E            ; } usb_stall_ep0 function end

	ORG 0x0000033E
033E            usb_send_o_0003F
033E            ; { usb_send_one_byte ; function begin
033E  0E08      	MOVLW 0x08
0340  0100      	MOVLB 0x00
0342  6FDC      	MOVWF gbl_delivery_buffer_size, 1
0344  6BCA      	CLRF gbl_delivery_bytes_sent, 1
0346  6BCB      	CLRF gbl_delivery_bytes_sent+D'1', 1
0348  0E01      	MOVLW 0x01
034A  6FC6      	MOVWF gbl_delivery_bytes_to_send, 1
034C  6BC7      	CLRF gbl_delivery_bytes_to_send+D'1', 1
034E  6BC8      	CLRF gbl_delivery_bytes_max_send, 1
0350  6BC9      	CLRF gbl_delivery_bytes_max_send+D'1', 1
0352  0102      	MOVLB 0x02
0354  5119      	MOVF usb_send_o_0003F_arg_data, W, 1
0356  0100      	MOVLB 0x00
0358  6FDE      	MOVWF gbl_buffer_byte, 1
035A  0E00      	MOVLW HIGH(gbl_buffer_byte+D'0')
035C  6FCD      	MOVWF gbl_delivery_ptr+D'1', 1
035E  0EDE      	MOVLW LOW(gbl_buffer_byte+D'0')
0360  6FCC      	MOVWF gbl_delivery_ptr, 1
0362  0E04      	MOVLW HIGH(gbl_bd0in+D'0')
0364  6FD1      	MOVWF gbl_delivery_bd+D'1', 1
0366  0E04      	MOVLW LOW(gbl_bd0in+D'0')
0368  6FD0      	MOVWF gbl_delivery_bd, 1
036A  0E05      	MOVLW HIGH(gbl_buffer_0_in+D'0')
036C  6FCF      	MOVWF gbl_delivery_buffer+D'1', 1
036E  0E08      	MOVLW LOW(gbl_buffer_0_in+D'0')
0370  6FCE      	MOVWF gbl_delivery_buffer, 1
0372  0104      	MOVLB 0x04
0374  9D04      	BCF gbl_bd0in,6, 1
0376  ECDCF000  	CALL usb_send_d_0003D
037A  0012      	RETURN
037C            ; } usb_send_one_byte function end

	ORG 0x0000037C
037C            usb_send_e_0001F
037C            ; { usb_send_empty_data_pkt ; function begin
037C  0E08      	MOVLW 0x08
037E  0100      	MOVLB 0x00
0380  6FDC      	MOVWF gbl_delivery_buffer_size, 1
0382  0E04      	MOVLW HIGH(gbl_bd0in+D'0')
0384  6FD1      	MOVWF gbl_delivery_bd+D'1', 1
0386  0E04      	MOVLW LOW(gbl_bd0in+D'0')
0388  6FD0      	MOVWF gbl_delivery_bd, 1
038A  0E05      	MOVLW HIGH(gbl_buffer_0_in+D'0')
038C  6FCF      	MOVWF gbl_delivery_buffer+D'1', 1
038E  0E08      	MOVLW LOW(gbl_buffer_0_in+D'0')
0390  6FCE      	MOVWF gbl_delivery_buffer, 1
0392  6BCA      	CLRF gbl_delivery_bytes_sent, 1
0394  6BCB      	CLRF gbl_delivery_bytes_sent+D'1', 1
0396  6BC6      	CLRF gbl_delivery_bytes_to_send, 1
0398  6BC7      	CLRF gbl_delivery_bytes_to_send+D'1', 1
039A  6BC8      	CLRF gbl_delivery_bytes_max_send, 1
039C  6BC9      	CLRF gbl_delivery_bytes_max_send+D'1', 1
039E  6BCC      	CLRF gbl_delivery_ptr, 1
03A0  6BCD      	CLRF gbl_delivery_ptr+D'1', 1
03A2  0104      	MOVLB 0x04
03A4  9D04      	BCF gbl_bd0in,6, 1
03A6  ECDCF000  	CALL usb_send_d_0003D
03AA  0012      	RETURN
03AC            ; } usb_send_empty_data_pkt function end

	ORG 0x000003AC
03AC            usb_get_de_00025
03AC            ; { usb_get_descriptor_callback ; function begin
03AC  6B1F      	CLRF usb_get_de_00025_1_descrip_00048, 1
03AE  6B20      	CLRF usb_get_de_00025_1_descrip_00048+D'1', 1
03B0  0519      	DECF usb_get_de_00025_arg_descr_00026, W, 1
03B2  E010      	BZ	label28
03B4  0E02      	MOVLW 0x02
03B6  6319      	CPFSEQ usb_get_de_00025_arg_descr_00026, 1
03B8  D001      	BRA	label25
03BA  D02B      	BRA	label29
03BC            label25
03BC  0E03      	MOVLW 0x03
03BE  6319      	CPFSEQ usb_get_de_00025_arg_descr_00026, 1
03C0  D001      	BRA	label26
03C2  D047      	BRA	label30
03C4            label26
03C4  0E06      	MOVLW 0x06
03C6  6319      	CPFSEQ usb_get_de_00025_arg_descr_00026, 1
03C8  D001      	BRA	label27
03CA  D086      	BRA	label34
03CC            label27
03CC  0E22      	MOVLW 0x22
03CE  6319      	CPFSEQ usb_get_de_00025_arg_descr_00026, 1
03D0  D0DA      	BRA	label36
03D2  D0B2      	BRA	label35
03D4            label28
03D4  0E20      	MOVLW 0x20
03D6  6F23      	MOVWF CompTempVar999, 1
03D8  6F2A      	MOVWF CompTempVar999+D'7', 1
03DA  0E44      	MOVLW 0x44
03DC  6F24      	MOVWF CompTempVar999+D'1', 1
03DE  0E63      	MOVLW 0x63
03E0  6F28      	MOVWF CompTempVar999+D'5', 1
03E2  0E65      	MOVLW 0x65
03E4  6F25      	MOVWF CompTempVar999+D'2', 1
03E6  6F29      	MOVWF CompTempVar999+D'6', 1
03E8  0E69      	MOVLW 0x69
03EA  6F27      	MOVWF CompTempVar999+D'4', 1
03EC  0E76      	MOVLW 0x76
03EE  6F26      	MOVWF CompTempVar999+D'3', 1
03F0  6B2B      	CLRF CompTempVar999+D'8', 1
03F2  0E02      	MOVLW HIGH(CompTempVar999+D'0')
03F4  6F3F      	MOVWF serial_pri_00012_arg_str+D'1', 1
03F6  0E23      	MOVLW LOW(CompTempVar999+D'0')
03F8  6F3E      	MOVWF serial_pri_00012_arg_str, 1
03FA  EC8CF000  	CALL serial_pri_00012
03FE  0E00      	MOVLW HIGH(gbl_my_device_descriptor+D'0')
0400  6F23      	MOVWF CompTempVar1001, 1
0402  0E8C      	MOVLW LOW(gbl_my_device_descriptor+D'0')
0404  6F1F      	MOVWF usb_get_de_00025_1_descrip_00048, 1
0406  5123      	MOVF CompTempVar1001, W, 1
0408  6F20      	MOVWF usb_get_de_00025_1_descrip_00048+D'1', 1
040A  0E12      	MOVLW 0x12
040C  6F21      	MOVWF usb_get_de_00025_1_descrip_00049, 1
040E  6B22      	CLRF usb_get_de_00025_1_descrip_00049+D'1', 1
0410  D0CD      	BRA	label37
0412            label29
0412  0E20      	MOVLW 0x20
0414  6F23      	MOVWF CompTempVar1002, 1
0416  6F2A      	MOVWF CompTempVar1002+D'7', 1
0418  0E43      	MOVLW 0x43
041A  6F24      	MOVWF CompTempVar1002+D'1', 1
041C  0E66      	MOVLW 0x66
041E  6F27      	MOVWF CompTempVar1002+D'4', 1
0420  0E67      	MOVLW 0x67
0422  6F29      	MOVWF CompTempVar1002+D'6', 1
0424  0E69      	MOVLW 0x69
0426  6F28      	MOVWF CompTempVar1002+D'5', 1
0428  0E6E      	MOVLW 0x6E
042A  6F26      	MOVWF CompTempVar1002+D'3', 1
042C  0E6F      	MOVLW 0x6F
042E  6F25      	MOVWF CompTempVar1002+D'2', 1
0430  6B2B      	CLRF CompTempVar1002+D'8', 1
0432  0E02      	MOVLW HIGH(CompTempVar1002+D'0')
0434  6F3F      	MOVWF serial_pri_00012_arg_str+D'1', 1
0436  0E23      	MOVLW LOW(CompTempVar1002+D'0')
0438  6F3E      	MOVWF serial_pri_00012_arg_str, 1
043A  EC8CF000  	CALL serial_pri_00012
043E  0E00      	MOVLW HIGH(gbl_complete_mouse_configuration+D'0')
0440  6F23      	MOVWF CompTempVar1004, 1
0442  0E37      	MOVLW LOW(gbl_complete_mouse_configuration+D'0')
0444  6F1F      	MOVWF usb_get_de_00025_1_descrip_00048, 1
0446  5123      	MOVF CompTempVar1004, W, 1
0448  6F20      	MOVWF usb_get_de_00025_1_descrip_00048+D'1', 1
044A  0E22      	MOVLW 0x22
044C  6F21      	MOVWF usb_get_de_00025_1_descrip_00049, 1
044E  6B22      	CLRF usb_get_de_00025_1_descrip_00049+D'1', 1
0450  D0AD      	BRA	label37
0452            label30
0452  0E20      	MOVLW 0x20
0454  6F23      	MOVWF CompTempVar1005, 1
0456  6F2B      	MOVWF CompTempVar1005+D'8', 1
0458  0E3A      	MOVLW 0x3A
045A  6F2A      	MOVWF CompTempVar1005+D'7', 1
045C  0E53      	MOVLW 0x53
045E  6F24      	MOVWF CompTempVar1005+D'1', 1
0460  0E67      	MOVLW 0x67
0462  6F29      	MOVWF CompTempVar1005+D'6', 1
0464  0E69      	MOVLW 0x69
0466  6F27      	MOVWF CompTempVar1005+D'4', 1
0468  0E6E      	MOVLW 0x6E
046A  6F28      	MOVWF CompTempVar1005+D'5', 1
046C  0E72      	MOVLW 0x72
046E  6F26      	MOVWF CompTempVar1005+D'3', 1
0470  0E74      	MOVLW 0x74
0472  6F25      	MOVWF CompTempVar1005+D'2', 1
0474  6B2C      	CLRF CompTempVar1005+D'9', 1
0476  0E02      	MOVLW HIGH(CompTempVar1005+D'0')
0478  6F3F      	MOVWF serial_pri_00012_arg_str+D'1', 1
047A  0E23      	MOVLW LOW(CompTempVar1005+D'0')
047C  6F3E      	MOVWF serial_pri_00012_arg_str, 1
047E  EC8CF000  	CALL serial_pri_00012
0482  511A      	MOVF usb_get_de_00025_arg_descr_00027, W, 1
0484  6F23      	MOVWF serial_pri_00014_arg_i, 1
0486  6B24      	CLRF serial_pri_00014_arg_i+D'1', 1
0488  EC5AF001  	CALL serial_pri_00014
048C  531A      	MOVF usb_get_de_00025_arg_descr_00027, F, 1
048E  E006      	BZ	label31
0490  051A      	DECF usb_get_de_00025_arg_descr_00027, W, 1
0492  E00E      	BZ	label32
0494  0E02      	MOVLW 0x02
0496  631A      	CPFSEQ usb_get_de_00025_arg_descr_00027, 1
0498  D089      	BRA	label37
049A  D014      	BRA	label33
049C            label31
049C  0E04      	MOVLW 0x04
049E  6F21      	MOVWF usb_get_de_00025_1_descrip_00049, 1
04A0  6B22      	CLRF usb_get_de_00025_1_descrip_00049+D'1', 1
04A2  0E00      	MOVLW HIGH(gbl_string_00+D'0')
04A4  6F23      	MOVWF CompTempVar1007, 1
04A6  0EBE      	MOVLW LOW(gbl_string_00+D'0')
04A8  6F1F      	MOVWF usb_get_de_00025_1_descrip_00048, 1
04AA  5123      	MOVF CompTempVar1007, W, 1
04AC  6F20      	MOVWF usb_get_de_00025_1_descrip_00048+D'1', 1
04AE  D07E      	BRA	label37
04B0            label32
04B0  0E18      	MOVLW 0x18
04B2  6F21      	MOVWF usb_get_de_00025_1_descrip_00049, 1
04B4  6B22      	CLRF usb_get_de_00025_1_descrip_00049+D'1', 1
04B6  0E00      	MOVLW HIGH(gbl_string_01+D'0')
04B8  6F23      	MOVWF CompTempVar1008, 1
04BA  0E60      	MOVLW LOW(gbl_string_01+D'0')
04BC  6F1F      	MOVWF usb_get_de_00025_1_descrip_00048, 1
04BE  5123      	MOVF CompTempVar1008, W, 1
04C0  6F20      	MOVWF usb_get_de_00025_1_descrip_00048+D'1', 1
04C2  D074      	BRA	label37
04C4            label33
04C4  0E14      	MOVLW 0x14
04C6  6F21      	MOVWF usb_get_de_00025_1_descrip_00049, 1
04C8  6B22      	CLRF usb_get_de_00025_1_descrip_00049+D'1', 1
04CA  0E00      	MOVLW HIGH(gbl_string_02+D'0')
04CC  6F23      	MOVWF CompTempVar1009, 1
04CE  0E78      	MOVLW LOW(gbl_string_02+D'0')
04D0  6F1F      	MOVWF usb_get_de_00025_1_descrip_00048, 1
04D2  5123      	MOVF CompTempVar1009, W, 1
04D4  6F20      	MOVWF usb_get_de_00025_1_descrip_00048+D'1', 1
04D6  D06A      	BRA	label37
04D8            label34
04D8  0E20      	MOVLW 0x20
04DA  6F23      	MOVWF CompTempVar1010, 1
04DC  6F2A      	MOVWF CompTempVar1010+D'7', 1
04DE  6F2F      	MOVWF CompTempVar1010+D'12', 1
04E0  6F3B      	MOVWF CompTempVar1010+D'24', 1
04E2  0E28      	MOVLW 0x28
04E4  6F30      	MOVWF CompTempVar1010+D'13', 1
04E6  0E29      	MOVLW 0x29
04E8  6F3A      	MOVWF CompTempVar1010+D'23', 1
04EA  0E44      	MOVLW 0x44
04EC  6F24      	MOVWF CompTempVar1010+D'1', 1
04EE  0E51      	MOVLW 0x51
04F0  6F2B      	MOVWF CompTempVar1010+D'8', 1
04F2  0E61      	MOVLW 0x61
04F4  6F2D      	MOVWF CompTempVar1010+D'10', 1
04F6  6F34      	MOVWF CompTempVar1010+D'17', 1
04F8  0E63      	MOVLW 0x63
04FA  6F28      	MOVWF CompTempVar1010+D'5', 1
04FC  0E64      	MOVLW 0x64
04FE  6F36      	MOVWF CompTempVar1010+D'19', 1
0500  6F39      	MOVWF CompTempVar1010+D'22', 1
0502  0E65      	MOVLW 0x65
0504  6F25      	MOVWF CompTempVar1010+D'2', 1
0506  6F29      	MOVWF CompTempVar1010+D'6', 1
0508  6F38      	MOVWF CompTempVar1010+D'21', 1
050A  0E68      	MOVLW 0x68
050C  6F33      	MOVWF CompTempVar1010+D'16', 1
050E  0E69      	MOVLW 0x69
0510  6F27      	MOVWF CompTempVar1010+D'4', 1
0512  0E6C      	MOVLW 0x6C
0514  6F2E      	MOVWF CompTempVar1010+D'11', 1
0516  6F37      	MOVWF CompTempVar1010+D'20', 1
0518  0E6E      	MOVLW 0x6E
051A  6F32      	MOVWF CompTempVar1010+D'15', 1
051C  6F35      	MOVWF CompTempVar1010+D'18', 1
051E  0E75      	MOVLW 0x75
0520  6F2C      	MOVWF CompTempVar1010+D'9', 1
0522  6F31      	MOVWF CompTempVar1010+D'14', 1
0524  0E76      	MOVLW 0x76
0526  6F26      	MOVWF CompTempVar1010+D'3', 1
0528  6B3C      	CLRF CompTempVar1010+D'25', 1
052A  0E02      	MOVLW HIGH(CompTempVar1010+D'0')
052C  6F3F      	MOVWF serial_pri_00012_arg_str+D'1', 1
052E  0E23      	MOVLW LOW(CompTempVar1010+D'0')
0530  6F3E      	MOVWF serial_pri_00012_arg_str, 1
0532  EC8CF000  	CALL serial_pri_00012
0536  D03A      	BRA	label37
0538            label35
0538  0E20      	MOVLW 0x20
053A  6F23      	MOVWF CompTempVar1012, 1
053C  6F27      	MOVWF CompTempVar1012+D'4', 1
053E  6F2E      	MOVWF CompTempVar1012+D'11', 1
0540  0E44      	MOVLW 0x44
0542  6F26      	MOVWF CompTempVar1012+D'3', 1
0544  0E48      	MOVLW 0x48
0546  6F24      	MOVWF CompTempVar1012+D'1', 1
0548  0E49      	MOVLW 0x49
054A  6F25      	MOVWF CompTempVar1012+D'2', 1
054C  0E52      	MOVLW 0x52
054E  6F28      	MOVWF CompTempVar1012+D'5', 1
0550  0E65      	MOVLW 0x65
0552  6F29      	MOVWF CompTempVar1012+D'6', 1
0554  0E6F      	MOVLW 0x6F
0556  6F2B      	MOVWF CompTempVar1012+D'8', 1
0558  0E70      	MOVLW 0x70
055A  6F2A      	MOVWF CompTempVar1012+D'7', 1
055C  0E72      	MOVLW 0x72
055E  6F2C      	MOVWF CompTempVar1012+D'9', 1
0560  0E74      	MOVLW 0x74
0562  6F2D      	MOVWF CompTempVar1012+D'10', 1
0564  6B2F      	CLRF CompTempVar1012+D'12', 1
0566  0E02      	MOVLW HIGH(CompTempVar1012+D'0')
0568  6F3F      	MOVWF serial_pri_00012_arg_str+D'1', 1
056A  0E23      	MOVLW LOW(CompTempVar1012+D'0')
056C  6F3E      	MOVWF serial_pri_00012_arg_str, 1
056E  EC8CF000  	CALL serial_pri_00012
0572  0E32      	MOVLW 0x32
0574  6F21      	MOVWF usb_get_de_00025_1_descrip_00049, 1
0576  6B22      	CLRF usb_get_de_00025_1_descrip_00049+D'1', 1
0578  0E00      	MOVLW HIGH(gbl_mouse_report_descriptor+D'0')
057A  6F23      	MOVWF CompTempVar1014, 1
057C  0E05      	MOVLW LOW(gbl_mouse_report_descriptor+D'0')
057E  6F1F      	MOVWF usb_get_de_00025_1_descrip_00048, 1
0580  5123      	MOVF CompTempVar1014, W, 1
0582  6F20      	MOVWF usb_get_de_00025_1_descrip_00048+D'1', 1
0584  D013      	BRA	label37
0586            label36
0586  0E3F      	MOVLW 0x3F
0588  6F23      	MOVWF CompTempVar1015, 1
058A  6F24      	MOVWF CompTempVar1015+D'1', 1
058C  0E20      	MOVLW 0x20
058E  6F25      	MOVWF CompTempVar1015+D'2', 1
0590  6B26      	CLRF CompTempVar1015+D'3', 1
0592  0E02      	MOVLW HIGH(CompTempVar1015+D'0')
0594  6F3F      	MOVWF serial_pri_00012_arg_str+D'1', 1
0596  0E23      	MOVLW LOW(CompTempVar1015+D'0')
0598  6F3E      	MOVWF serial_pri_00012_arg_str, 1
059A  EC8CF000  	CALL serial_pri_00012
059E  5119      	MOVF usb_get_de_00025_arg_descr_00026, W, 1
05A0  6F23      	MOVWF serial_pri_00014_arg_i, 1
05A2  6B24      	CLRF serial_pri_00014_arg_i+D'1', 1
05A4  EC5AF001  	CALL serial_pri_00014
05A8  EC54F001  	CALL serial_pri_00018
05AC            label37
05AC  511C      	MOVF usb_get_de_00025_arg_rtn_d_00028+D'1', W, 1
05AE  6EEA      	MOVWF FSR0H
05B0  511B      	MOVF usb_get_de_00025_arg_rtn_d_00028, W, 1
05B2  6EE9      	MOVWF FSR0L
05B4  2AE9      	INCF FSR0L, F
05B6  511F      	MOVF usb_get_de_00025_1_descrip_00048, W, 1
05B8  6F23      	MOVWF CompTempVar1017, 1
05BA  5120      	MOVF usb_get_de_00025_1_descrip_00048+D'1', W, 1
05BC  6EEF      	MOVWF INDF0
05BE  06E9      	DECF FSR0L, F
05C0  5123      	MOVF CompTempVar1017, W, 1
05C2  6EEF      	MOVWF INDF0
05C4  511E      	MOVF usb_get_de_00025_arg_rtn_d_00029+D'1', W, 1
05C6  6EEA      	MOVWF FSR0H
05C8  511D      	MOVF usb_get_de_00025_arg_rtn_d_00029, W, 1
05CA  6EE9      	MOVWF FSR0L
05CC  2AE9      	INCF FSR0L, F
05CE  5121      	MOVF usb_get_de_00025_1_descrip_00049, W, 1
05D0  6F23      	MOVWF CompTempVar1018, 1
05D2  5122      	MOVF usb_get_de_00025_1_descrip_00049+D'1', W, 1
05D4  6EEF      	MOVWF INDF0
05D6  06E9      	DECF FSR0L, F
05D8  5123      	MOVF CompTempVar1018, W, 1
05DA  6EEF      	MOVWF INDF0
05DC  0012      	RETURN
05DE            ; } usb_get_descriptor_callback function end

	ORG 0x000005DE
05DE            usb_config_0003E
05DE            ; { usb_configure_endpoints ; function begin
05DE  0E20      	MOVLW 0x20
05E0  0102      	MOVLB 0x02
05E2  6F1F      	MOVWF CompTempVar944+D'6', 1
05E4  6F23      	MOVWF CompTempVar944+D'10', 1
05E6  0E43      	MOVLW 0x43
05E8  6F19      	MOVWF CompTempVar944, 1
05EA  0E65      	MOVLW 0x65
05EC  6F20      	MOVWF CompTempVar944+D'7', 1
05EE  0E66      	MOVLW 0x66
05F0  6F1C      	MOVWF CompTempVar944+D'3', 1
05F2  0E67      	MOVLW 0x67
05F4  6F1E      	MOVWF CompTempVar944+D'5', 1
05F6  0E69      	MOVLW 0x69
05F8  6F1D      	MOVWF CompTempVar944+D'4', 1
05FA  0E6E      	MOVLW 0x6E
05FC  6F1B      	MOVWF CompTempVar944+D'2', 1
05FE  0E6F      	MOVLW 0x6F
0600  6F1A      	MOVWF CompTempVar944+D'1', 1
0602  0E70      	MOVLW 0x70
0604  6F21      	MOVWF CompTempVar944+D'8', 1
0606  0E73      	MOVLW 0x73
0608  6F22      	MOVWF CompTempVar944+D'9', 1
060A  6B24      	CLRF CompTempVar944+D'11', 1
060C  0E02      	MOVLW HIGH(CompTempVar944+D'0')
060E  6F3F      	MOVWF serial_pri_00012_arg_str+D'1', 1
0610  0E19      	MOVLW LOW(CompTempVar944+D'0')
0612  6F3E      	MOVWF serial_pri_00012_arg_str, 1
0614  EC8CF000  	CALL serial_pri_00012
0618  8871      	BSF gbl_uep1,4
061A  9471      	BCF gbl_uep1,2
061C  8271      	BSF gbl_uep1,1
061E  8671      	BSF gbl_uep1,3
0620  0104      	MOVLB 0x04
0622  8D0C      	BSF gbl_bd1in,6, 1
0624  9B0C      	BCF gbl_bd1in,5, 1
0626  990C      	BCF gbl_bd1in,4, 1
0628  970C      	BCF gbl_bd1in,3, 1
062A  950C      	BCF gbl_bd1in,2, 1
062C  930C      	BCF gbl_bd1in,1, 1
062E  910C      	BCF gbl_bd1in,0, 1
0630  9F0C      	BCF gbl_bd1in,7, 1
0632  0012      	RETURN
0634            ; } usb_configure_endpoints function end

	ORG 0x00000634
0634            serial_pri_00015
0634            ; { serial_print_int_hex ; function begin
0634  3919      	SWAPF serial_pri_00015_arg_i, W, 1
0636  0B0F      	ANDLW 0x0F
0638  6F1A      	MOVWF serial_pri_00015_5_x, 1
063A  0E0A      	MOVLW 0x0A
063C  611A      	CPFSLT serial_pri_00015_5_x, 1
063E  D004      	BRA	label38
0640  511A      	MOVF serial_pri_00015_5_x, W, 1
0642  0F30      	ADDLW 0x30
0644  6F41      	MOVWF serial_put_00010_arg_c, 1
0646  D003      	BRA	label39
0648            label38
0648  511A      	MOVF serial_pri_00015_5_x, W, 1
064A  0F37      	ADDLW 0x37
064C  6F41      	MOVWF serial_put_00010_arg_c, 1
064E            label39
064E  EC57F000  	CALL serial_put_00010
0652  0E0F      	MOVLW 0x0F
0654  1519      	ANDWF serial_pri_00015_arg_i, W, 1
0656  6F1A      	MOVWF serial_pri_00015_15_x, 1
0658  0E0A      	MOVLW 0x0A
065A  611A      	CPFSLT serial_pri_00015_15_x, 1
065C  D004      	BRA	label40
065E  511A      	MOVF serial_pri_00015_15_x, W, 1
0660  0F30      	ADDLW 0x30
0662  6F41      	MOVWF serial_put_00010_arg_c, 1
0664  D003      	BRA	label41
0666            label40
0666  511A      	MOVF serial_pri_00015_15_x, W, 1
0668  0F37      	ADDLW 0x37
066A  6F41      	MOVWF serial_put_00010_arg_c, 1
066C            label41
066C  EC57F000  	CALL serial_put_00010
0670  0012      	RETURN
0672            ; } serial_print_int_hex function end

	ORG 0x00000672
0672            usb_prime__00040
0672            ; { usb_prime_ep0_out ; function begin
0672  0E50      	MOVLW 0x50
0674  0102      	MOVLB 0x02
0676  6F41      	MOVWF serial_put_00010_arg_c, 1
0678  EC57F000  	CALL serial_put_00010
067C  0E08      	MOVLW 0x08
067E  0104      	MOVLB 0x04
0680  6F01      	MOVWF gbl_bd0out+D'1', 1
0682  6B02      	CLRF gbl_bd0out+D'2', 1
0684  0E05      	MOVLW 0x05
0686  6F03      	MOVWF gbl_bd0out+D'3', 1
0688  8D00      	BSF gbl_bd0out,6, 1
068A  9B00      	BCF gbl_bd0out,5, 1
068C  9900      	BCF gbl_bd0out,4, 1
068E  8700      	BSF gbl_bd0out,3, 1
0690  9500      	BCF gbl_bd0out,2, 1
0692  9300      	BCF gbl_bd0out,1, 1
0694  9100      	BCF gbl_bd0out,0, 1
0696  8F00      	BSF gbl_bd0out,7, 1
0698  0012      	RETURN
069A            ; } usb_prime_ep0_out function end

	ORG 0x0000069A
069A            usb_handle_00041
069A            ; { usb_handle_standard_request ; function begin
069A  0E06      	MOVLW 0x06
069C  6312      	CPFSEQ usb_handle_00041_arg_sdp+D'1', 1
069E  D001      	BRA	label42
06A0  D010      	BRA	label46
06A2            label42
06A2  0E05      	MOVLW 0x05
06A4  6312      	CPFSEQ usb_handle_00041_arg_sdp+D'1', 1
06A6  D001      	BRA	label43
06A8  D076      	BRA	label49
06AA            label43
06AA  0E09      	MOVLW 0x09
06AC  6312      	CPFSEQ usb_handle_00041_arg_sdp+D'1', 1
06AE  D001      	BRA	label44
06B0  D094      	BRA	label50
06B2            label44
06B2  0E0A      	MOVLW 0x0A
06B4  6312      	CPFSEQ usb_handle_00041_arg_sdp+D'1', 1
06B6  D001      	BRA	label45
06B8  D0AB      	BRA	label51
06BA            label45
06BA  5312      	MOVF usb_handle_00041_arg_sdp+D'1', F, 1
06BC  B4D8      	BTFSC STATUS,Z
06BE  D0BE      	BRA	label52
06C0  D0D0      	BRA	label53
06C2            label46
06C2  0E20      	MOVLW 0x20
06C4  6F19      	MOVWF CompTempVar949, 1
06C6  6F1D      	MOVWF CompTempVar949+D'4', 1
06C8  0E3A      	MOVLW 0x3A
06CA  6F1C      	MOVWF CompTempVar949+D'3', 1
06CC  0E44      	MOVLW 0x44
06CE  6F1B      	MOVWF CompTempVar949+D'2', 1
06D0  0E47      	MOVLW 0x47
06D2  6F1A      	MOVWF CompTempVar949+D'1', 1
06D4  6B1E      	CLRF CompTempVar949+D'5', 1
06D6  0E02      	MOVLW HIGH(CompTempVar949+D'0')
06D8  6F3F      	MOVWF serial_pri_00012_arg_str+D'1', 1
06DA  0E19      	MOVLW LOW(CompTempVar949+D'0')
06DC  6F3E      	MOVWF serial_pri_00012_arg_str, 1
06DE  EC8CF000  	CALL serial_pri_00012
06E2  5114      	MOVF usb_handle_00041_arg_sdp+D'3', W, 1
06E4  0101      	MOVLB 0x01
06E6  6FFE      	MOVWF usb_handle_00041_1_descrip_00042, 1
06E8  0102      	MOVLB 0x02
06EA  5113      	MOVF usb_handle_00041_arg_sdp+D'2', W, 1
06EC  0101      	MOVLB 0x01
06EE  6FFF      	MOVWF usb_handle_00041_1_descrip_00043, 1
06F0  51FE      	MOVF usb_handle_00041_1_descrip_00042, W, 1
06F2  0102      	MOVLB 0x02
06F4  6F23      	MOVWF serial_pri_00014_arg_i, 1
06F6  6B24      	CLRF serial_pri_00014_arg_i+D'1', 1
06F8  EC5AF001  	CALL serial_pri_00014
06FC  0101      	MOVLB 0x01
06FE  51FE      	MOVF usb_handle_00041_1_descrip_00042, W, 1
0700  0102      	MOVLB 0x02
0702  6F19      	MOVWF usb_get_de_00025_arg_descr_00026, 1
0704  0101      	MOVLB 0x01
0706  51FF      	MOVF usb_handle_00041_1_descrip_00043, W, 1
0708  0102      	MOVLB 0x02
070A  6F1A      	MOVWF usb_get_de_00025_arg_descr_00027, 1
070C  0E00      	MOVLW HIGH(gbl_delivery_ptr+D'0')
070E  6F1C      	MOVWF usb_get_de_00025_arg_rtn_d_00028+D'1', 1
0710  0ECC      	MOVLW LOW(gbl_delivery_ptr+D'0')
0712  6F1B      	MOVWF usb_get_de_00025_arg_rtn_d_00028, 1
0714  0E00      	MOVLW HIGH(gbl_delivery_bytes_to_send+D'0')
0716  6F1E      	MOVWF usb_get_de_00025_arg_rtn_d_00029+D'1', 1
0718  0EC6      	MOVLW LOW(gbl_delivery_bytes_to_send+D'0')
071A  6F1D      	MOVWF usb_get_de_00025_arg_rtn_d_00029, 1
071C  ECD6F001  	CALL usb_get_de_00025
0720  0100      	MOVLB 0x00
0722  53CC      	MOVF gbl_delivery_ptr, F, 1
0724  E102      	BNZ	label47
0726  53CD      	MOVF gbl_delivery_ptr+D'1', F, 1
0728  E01B      	BZ	label48
072A            label47
072A  0E03      	MOVLW 0x03
072C  6FDB      	MOVWF gbl_control_mode, 1
072E  0102      	MOVLB 0x02
0730  5117      	MOVF usb_handle_00041_arg_sdp+D'6', W, 1
0732  0100      	MOVLB 0x00
0734  6FC8      	MOVWF gbl_delivery_bytes_max_send, 1
0736  0102      	MOVLB 0x02
0738  5118      	MOVF usb_handle_00041_arg_sdp+D'7', W, 1
073A  0100      	MOVLB 0x00
073C  6FC9      	MOVWF gbl_delivery_bytes_max_send+D'1', 1
073E  6BCA      	CLRF gbl_delivery_bytes_sent, 1
0740  6BCB      	CLRF gbl_delivery_bytes_sent+D'1', 1
0742  0E08      	MOVLW 0x08
0744  6FDC      	MOVWF gbl_delivery_buffer_size, 1
0746  0E04      	MOVLW HIGH(gbl_bd0in+D'0')
0748  6FD1      	MOVWF gbl_delivery_bd+D'1', 1
074A  0E04      	MOVLW LOW(gbl_bd0in+D'0')
074C  6FD0      	MOVWF gbl_delivery_bd, 1
074E  0E08      	MOVLW 0x08
0750  6FCE      	MOVWF gbl_delivery_buffer, 1
0752  0E05      	MOVLW 0x05
0754  6FCF      	MOVWF gbl_delivery_buffer+D'1', 1
0756  0104      	MOVLB 0x04
0758  9D04      	BCF gbl_bd0in,6, 1
075A  ECDCF000  	CALL usb_send_d_0003D
075E  0012      	RETURN
0760            label48
0760  0E20      	MOVLW 0x20
0762  0102      	MOVLB 0x02
0764  6F19      	MOVWF CompTempVar954, 1
0766  6F21      	MOVWF CompTempVar954+D'8', 1
0768  0E3C      	MOVLW 0x3C
076A  6F1A      	MOVWF CompTempVar954+D'1', 1
076C  0E3E      	MOVLW 0x3E
076E  6F20      	MOVWF CompTempVar954+D'7', 1
0770  0E61      	MOVLW 0x61
0772  6F1D      	MOVWF CompTempVar954+D'4', 1
0774  0E6C      	MOVLW 0x6C
0776  6F1E      	MOVWF CompTempVar954+D'5', 1
0778  6F1F      	MOVWF CompTempVar954+D'6', 1
077A  0E73      	MOVLW 0x73
077C  6F1B      	MOVWF CompTempVar954+D'2', 1
077E  0E74      	MOVLW 0x74
0780  6F1C      	MOVWF CompTempVar954+D'3', 1
0782  6B22      	CLRF CompTempVar954+D'9', 1
0784  0E02      	MOVLW HIGH(CompTempVar954+D'0')
0786  6F3F      	MOVWF serial_pri_00012_arg_str+D'1', 1
0788  0E19      	MOVLW LOW(CompTempVar954+D'0')
078A  6F3E      	MOVWF serial_pri_00012_arg_str, 1
078C  EC8CF000  	CALL serial_pri_00012
0790  EC99F001  	CALL usb_stall__00020
0794  0012      	RETURN
0796            label49
0796  5113      	MOVF usb_handle_00041_arg_sdp+D'2', W, 1
0798  0100      	MOVLB 0x00
079A  6FDA      	MOVWF gbl_usb_address, 1
079C  0E20      	MOVLW 0x20
079E  0102      	MOVLB 0x02
07A0  6F19      	MOVWF CompTempVar956, 1
07A2  0E53      	MOVLW 0x53
07A4  6F1A      	MOVWF CompTempVar956+D'1', 1
07A6  0E41      	MOVLW 0x41
07A8  6F1B      	MOVWF CompTempVar956+D'2', 1
07AA  0E3A      	MOVLW 0x3A
07AC  6F1C      	MOVWF CompTempVar956+D'3', 1
07AE  6B1D      	CLRF CompTempVar956+D'4', 1
07B0  0E02      	MOVLW HIGH(CompTempVar956+D'0')
07B2  6F3F      	MOVWF serial_pri_00012_arg_str+D'1', 1
07B4  0E19      	MOVLW LOW(CompTempVar956+D'0')
07B6  6F3E      	MOVWF serial_pri_00012_arg_str, 1
07B8  EC8CF000  	CALL serial_pri_00012
07BC  0100      	MOVLB 0x00
07BE  51DA      	MOVF gbl_usb_address, W, 1
07C0  0102      	MOVLB 0x02
07C2  6F19      	MOVWF serial_pri_00015_arg_i, 1
07C4  EC1AF003  	CALL serial_pri_00015
07C8  0E01      	MOVLW 0x01
07CA  0100      	MOVLB 0x00
07CC  6FDD      	MOVWF gbl_usb_status, 1
07CE  ECBEF001  	CALL usb_send_e_0001F
07D2  0E06      	MOVLW 0x06
07D4  0100      	MOVLB 0x00
07D6  6FDB      	MOVWF gbl_control_mode, 1
07D8  0012      	RETURN
07DA            label50
07DA  0E20      	MOVLW 0x20
07DC  6F19      	MOVWF CompTempVar958, 1
07DE  6F1D      	MOVWF CompTempVar958+D'4', 1
07E0  0E3A      	MOVLW 0x3A
07E2  6F1C      	MOVWF CompTempVar958+D'3', 1
07E4  0E43      	MOVLW 0x43
07E6  6F1B      	MOVWF CompTempVar958+D'2', 1
07E8  0E53      	MOVLW 0x53
07EA  6F1A      	MOVWF CompTempVar958+D'1', 1
07EC  6B1E      	CLRF CompTempVar958+D'5', 1
07EE  0E02      	MOVLW HIGH(CompTempVar958+D'0')
07F0  6F3F      	MOVWF serial_pri_00012_arg_str+D'1', 1
07F2  0E19      	MOVLW LOW(CompTempVar958+D'0')
07F4  6F3E      	MOVWF serial_pri_00012_arg_str, 1
07F6  EC8CF000  	CALL serial_pri_00012
07FA  0E06      	MOVLW 0x06
07FC  0100      	MOVLB 0x00
07FE  6FDB      	MOVWF gbl_control_mode, 1
0800  ECBEF001  	CALL usb_send_e_0001F
0804  0E03      	MOVLW 0x03
0806  0100      	MOVLB 0x00
0808  6FD9      	MOVWF gbl_usb_state, 1
080A  ECEFF002  	CALL usb_config_0003E
080E  0012      	RETURN
0810            label51
0810  0E20      	MOVLW 0x20
0812  6F19      	MOVWF CompTempVar960, 1
0814  6F1C      	MOVWF CompTempVar960+D'3', 1
0816  0E47      	MOVLW 0x47
0818  6F1A      	MOVWF CompTempVar960+D'1', 1
081A  0E49      	MOVLW 0x49
081C  6F1B      	MOVWF CompTempVar960+D'2', 1
081E  6B1D      	CLRF CompTempVar960+D'4', 1
0820  0E02      	MOVLW HIGH(CompTempVar960+D'0')
0822  6F3F      	MOVWF serial_pri_00012_arg_str+D'1', 1
0824  0E19      	MOVLW LOW(CompTempVar960+D'0')
0826  6F3E      	MOVWF serial_pri_00012_arg_str, 1
0828  EC8CF000  	CALL serial_pri_00012
082C  0E03      	MOVLW 0x03
082E  0100      	MOVLB 0x00
0830  6FDB      	MOVWF gbl_control_mode, 1
0832  0E01      	MOVLW 0x01
0834  0102      	MOVLB 0x02
0836  6F19      	MOVWF usb_send_o_0003F_arg_data, 1
0838  EC9FF001  	CALL usb_send_o_0003F
083C            label52
083C  0E20      	MOVLW 0x20
083E  0102      	MOVLB 0x02
0840  6F19      	MOVWF CompTempVar962, 1
0842  6F1C      	MOVWF CompTempVar962+D'3', 1
0844  0E47      	MOVLW 0x47
0846  6F1A      	MOVWF CompTempVar962+D'1', 1
0848  0E53      	MOVLW 0x53
084A  6F1B      	MOVWF CompTempVar962+D'2', 1
084C  6B1D      	CLRF CompTempVar962+D'4', 1
084E  0E02      	MOVLW HIGH(CompTempVar962+D'0')
0850  6F3F      	MOVWF serial_pri_00012_arg_str+D'1', 1
0852  0E19      	MOVLW LOW(CompTempVar962+D'0')
0854  6F3E      	MOVWF serial_pri_00012_arg_str, 1
0856  EC8CF000  	CALL serial_pri_00012
085A  6B19      	CLRF usb_send_o_0003F_arg_data, 1
085C  EC9FF001  	CALL usb_send_o_0003F
0860  0012      	RETURN
0862            label53
0862  0E20      	MOVLW 0x20
0864  6F19      	MOVWF CompTempVar964, 1
0866  6F1E      	MOVWF CompTempVar964+D'5', 1
0868  0E3F      	MOVLW 0x3F
086A  6F1A      	MOVWF CompTempVar964+D'1', 1
086C  6F1B      	MOVWF CompTempVar964+D'2', 1
086E  0E52      	MOVLW 0x52
0870  6F1D      	MOVWF CompTempVar964+D'4', 1
0872  0E53      	MOVLW 0x53
0874  6F1C      	MOVWF CompTempVar964+D'3', 1
0876  6B1F      	CLRF CompTempVar964+D'6', 1
0878  0E02      	MOVLW HIGH(CompTempVar964+D'0')
087A  6F3F      	MOVWF serial_pri_00012_arg_str+D'1', 1
087C  0E19      	MOVLW LOW(CompTempVar964+D'0')
087E  6F3E      	MOVWF serial_pri_00012_arg_str, 1
0880  EC8CF000  	CALL serial_pri_00012
0884  5112      	MOVF usb_handle_00041_arg_sdp+D'1', W, 1
0886  6F23      	MOVWF serial_pri_00014_arg_i, 1
0888  6B24      	CLRF serial_pri_00014_arg_i+D'1', 1
088A  EC5AF001  	CALL serial_pri_00014
088E  0012      	RETURN
0890            ; } usb_handle_standard_request function end

	ORG 0x00000890
0890            usb_handle_00024
0890            ; { usb_handle_class_ctrl_write_callback ; function begin
0890  0012      	RETURN
0892            ; } usb_handle_class_ctrl_write_callback function end

	ORG 0x00000892
0892            usb_handle_00023
0892            ; { usb_handle_class_ctrl_read_callback ; function begin
0892  0012      	RETURN
0894            ; } usb_handle_class_ctrl_read_callback function end

	ORG 0x00000894
0894            usb_handle_00022
0894            ; { usb_handle_class_request_callback ; function begin
0894  0E20      	MOVLW 0x20
0896  6F1E      	MOVWF CompTempVar1019+D'5', 1
0898  6F27      	MOVWF CompTempVar1019+D'14', 1
089A  0E3A      	MOVLW 0x3A
089C  6F26      	MOVWF CompTempVar1019+D'13', 1
089E  0E43      	MOVLW 0x43
08A0  6F19      	MOVWF CompTempVar1019, 1
08A2  0E61      	MOVLW 0x61
08A4  6F1B      	MOVWF CompTempVar1019+D'2', 1
08A6  0E65      	MOVLW 0x65
08A8  6F20      	MOVWF CompTempVar1019+D'7', 1
08AA  6F23      	MOVWF CompTempVar1019+D'10', 1
08AC  0E6C      	MOVLW 0x6C
08AE  6F1A      	MOVWF CompTempVar1019+D'1', 1
08B0  0E71      	MOVLW 0x71
08B2  6F21      	MOVWF CompTempVar1019+D'8', 1
08B4  0E72      	MOVLW 0x72
08B6  6F1F      	MOVWF CompTempVar1019+D'6', 1
08B8  0E73      	MOVLW 0x73
08BA  6F1C      	MOVWF CompTempVar1019+D'3', 1
08BC  6F1D      	MOVWF CompTempVar1019+D'4', 1
08BE  6F24      	MOVWF CompTempVar1019+D'11', 1
08C0  0E74      	MOVLW 0x74
08C2  6F25      	MOVWF CompTempVar1019+D'12', 1
08C4  0E75      	MOVLW 0x75
08C6  6F22      	MOVWF CompTempVar1019+D'9', 1
08C8  6B28      	CLRF CompTempVar1019+D'15', 1
08CA  0E02      	MOVLW HIGH(CompTempVar1019+D'0')
08CC  6F3F      	MOVWF serial_pri_00012_arg_str+D'1', 1
08CE  0E19      	MOVLW LOW(CompTempVar1019+D'0')
08D0  6F3E      	MOVWF serial_pri_00012_arg_str, 1
08D2  EC8CF000  	CALL serial_pri_00012
08D6  5112      	MOVF usb_handle_00022_arg_sdp+D'1', W, 1
08D8  6F23      	MOVWF serial_pri_00014_arg_i, 1
08DA  6B24      	CLRF serial_pri_00014_arg_i+D'1', 1
08DC  EC5AF001  	CALL serial_pri_00014
08E0  0512      	DECF usb_handle_00022_arg_sdp+D'1', W, 1
08E2  B4D8      	BTFSC STATUS,Z
08E4  0012      	RETURN
08E6  0E02      	MOVLW 0x02
08E8  6312      	CPFSEQ usb_handle_00022_arg_sdp+D'1', 1
08EA  D001      	BRA	label54
08EC  0012      	RETURN
08EE            label54
08EE  0E03      	MOVLW 0x03
08F0  6312      	CPFSEQ usb_handle_00022_arg_sdp+D'1', 1
08F2  D001      	BRA	label55
08F4  0012      	RETURN
08F6            label55
08F6  0E09      	MOVLW 0x09
08F8  6312      	CPFSEQ usb_handle_00022_arg_sdp+D'1', 1
08FA  D001      	BRA	label56
08FC  0012      	RETURN
08FE            label56
08FE  0E0A      	MOVLW 0x0A
0900  6312      	CPFSEQ usb_handle_00022_arg_sdp+D'1', 1
0902  D001      	BRA	label57
0904  D004      	BRA	label58
0906            label57
0906  0E0B      	MOVLW 0x0B
0908  6312      	CPFSEQ usb_handle_00022_arg_sdp+D'1', 1
090A  0012      	RETURN
090C  0012      	RETURN
090E            label58
090E  0E20      	MOVLW 0x20
0910  6F19      	MOVWF CompTempVar1021, 1
0912  6F22      	MOVWF CompTempVar1021+D'9', 1
0914  0E53      	MOVLW 0x53
0916  6F1A      	MOVWF CompTempVar1021+D'1', 1
0918  0E5F      	MOVLW 0x5F
091A  6F1D      	MOVWF CompTempVar1021+D'4', 1
091C  0E64      	MOVLW 0x64
091E  6F1F      	MOVWF CompTempVar1021+D'6', 1
0920  0E65      	MOVLW 0x65
0922  6F1B      	MOVWF CompTempVar1021+D'2', 1
0924  6F21      	MOVWF CompTempVar1021+D'8', 1
0926  0E69      	MOVLW 0x69
0928  6F1E      	MOVWF CompTempVar1021+D'5', 1
092A  0E6C      	MOVLW 0x6C
092C  6F20      	MOVWF CompTempVar1021+D'7', 1
092E  0E74      	MOVLW 0x74
0930  6F1C      	MOVWF CompTempVar1021+D'3', 1
0932  6B23      	CLRF CompTempVar1021+D'10', 1
0934  0E02      	MOVLW HIGH(CompTempVar1021+D'0')
0936  6F3F      	MOVWF serial_pri_00012_arg_str+D'1', 1
0938  0E19      	MOVLW LOW(CompTempVar1021+D'0')
093A  6F3E      	MOVWF serial_pri_00012_arg_str, 1
093C  EC8CF000  	CALL serial_pri_00012
0940  EC99F001  	CALL usb_stall__00020
0944  0012      	RETURN
0946            ; } usb_handle_class_request_callback function end

	ORG 0x00000946
0946            memcpy8_00000
0946            ; { memcpy8 ; function begin
0946  51FD      	MOVF memcpy8_00000_arg_dst, W, 1
0948  0102      	MOVLB 0x02
094A  6F11      	MOVWF memcpy8_00000_1_dst2, 1
094C  0100      	MOVLB 0x00
094E  51FE      	MOVF memcpy8_00000_arg_dst+D'1', W, 1
0950  0102      	MOVLB 0x02
0952  6F12      	MOVWF memcpy8_00000_1_dst2+D'1', 1
0954  0101      	MOVLB 0x01
0956  51FE      	MOVF memcpy8_00000_arg_src, W, 1
0958  0102      	MOVLB 0x02
095A  6F13      	MOVWF memcpy8_00000_1_src2, 1
095C  0101      	MOVLB 0x01
095E  51FF      	MOVF memcpy8_00000_arg_src+D'1', W, 1
0960  0102      	MOVLB 0x02
0962  6F14      	MOVWF memcpy8_00000_1_src2+D'1', 1
0964            label59
0964  0E00      	MOVLW 0x00
0966  0100      	MOVLB 0x00
0968  65FF      	CPFSGT memcpy8_00000_arg_len, 1
096A  D014      	BRA	label60
096C  0102      	MOVLB 0x02
096E  5114      	MOVF memcpy8_00000_1_src2+D'1', W, 1
0970  6EEA      	MOVWF FSR0H
0972  5113      	MOVF memcpy8_00000_1_src2, W, 1
0974  6EE9      	MOVWF FSR0L
0976  4B13      	INFSNZ memcpy8_00000_1_src2, F, 1
0978  2B14      	INCF memcpy8_00000_1_src2+D'1', F, 1
097A  50EF      	MOVF INDF0, W
097C  6F15      	MOVWF CompTempVar568, 1
097E  5112      	MOVF memcpy8_00000_1_dst2+D'1', W, 1
0980  6EEA      	MOVWF FSR0H
0982  5111      	MOVF memcpy8_00000_1_dst2, W, 1
0984  6EE9      	MOVWF FSR0L
0986  4B11      	INFSNZ memcpy8_00000_1_dst2, F, 1
0988  2B12      	INCF memcpy8_00000_1_dst2+D'1', F, 1
098A  5115      	MOVF CompTempVar568, W, 1
098C  6EEF      	MOVWF INDF0
098E  0100      	MOVLB 0x00
0990  07FF      	DECF memcpy8_00000_arg_len, F, 1
0992  D7E8      	BRA	label59
0994            label60
0994  51FD      	MOVF memcpy8_00000_arg_dst, W, 1
0996  0102      	MOVLB 0x02
0998  6F15      	MOVWF CompTempVarRet567, 1
099A  0100      	MOVLB 0x00
099C  51FE      	MOVF memcpy8_00000_arg_dst+D'1', W, 1
099E  0102      	MOVLB 0x02
09A0  6F16      	MOVWF CompTempVarRet567+D'1', 1
09A2  0012      	RETURN
09A4            ; } memcpy8 function end

	ORG 0x000009A4
09A4            usb_handle_0003C
09A4            ; { usb_handle_stall ; function begin
09A4  0E20      	MOVLW 0x20
09A6  0102      	MOVLB 0x02
09A8  6F11      	MOVWF CompTempVar919, 1
09AA  6F19      	MOVWF CompTempVar919+D'8', 1
09AC  0E3A      	MOVLW 0x3A
09AE  6F13      	MOVWF CompTempVar919+D'2', 1
09B0  0E53      	MOVLW 0x53
09B2  6F14      	MOVWF CompTempVar919+D'3', 1
09B4  0E55      	MOVLW 0x55
09B6  6F12      	MOVWF CompTempVar919+D'1', 1
09B8  0E61      	MOVLW 0x61
09BA  6F16      	MOVWF CompTempVar919+D'5', 1
09BC  0E6C      	MOVLW 0x6C
09BE  6F17      	MOVWF CompTempVar919+D'6', 1
09C0  6F18      	MOVWF CompTempVar919+D'7', 1
09C2  0E74      	MOVLW 0x74
09C4  6F15      	MOVWF CompTempVar919+D'4', 1
09C6  6B1A      	CLRF CompTempVar919+D'9', 1
09C8  0E02      	MOVLW HIGH(CompTempVar919+D'0')
09CA  6F3F      	MOVWF serial_pri_00012_arg_str+D'1', 1
09CC  0E11      	MOVLW LOW(CompTempVar919+D'0')
09CE  6F3E      	MOVWF serial_pri_00012_arg_str, 1
09D0  EC8CF000  	CALL serial_pri_00012
09D4  0012      	RETURN
09D6            ; } usb_handle_stall function end

	ORG 0x000009D6
09D6            usb_handle_0003B
09D6            ; { usb_handle_reset ; function begin
09D6  0100      	MOVLB 0x00
09D8  6BDA      	CLRF gbl_usb_address, 1
09DA  6BDB      	CLRF gbl_control_mode, 1
09DC  6BDD      	CLRF gbl_usb_status, 1
09DE  9668      	BCF gbl_uir,3
09E0  9668      	BCF gbl_uir,3
09E2  9668      	BCF gbl_uir,3
09E4  9668      	BCF gbl_uir,3
09E6  0E08      	MOVLW 0x08
09E8  0104      	MOVLB 0x04
09EA  6F01      	MOVWF gbl_bd0out+D'1', 1
09EC  6B02      	CLRF gbl_bd0out+D'2', 1
09EE  0E05      	MOVLW 0x05
09F0  6F03      	MOVWF gbl_bd0out+D'3', 1
09F2  9D00      	BCF gbl_bd0out,6, 1
09F4  9B00      	BCF gbl_bd0out,5, 1
09F6  9900      	BCF gbl_bd0out,4, 1
09F8  9700      	BCF gbl_bd0out,3, 1
09FA  9500      	BCF gbl_bd0out,2, 1
09FC  9300      	BCF gbl_bd0out,1, 1
09FE  9100      	BCF gbl_bd0out,0, 1
0A00  8F00      	BSF gbl_bd0out,7, 1
0A02  0E08      	MOVLW 0x08
0A04  6F05      	MOVWF gbl_bd0in+D'1', 1
0A06  6F06      	MOVWF gbl_bd0in+D'2', 1
0A08  0E05      	MOVLW 0x05
0A0A  6F07      	MOVWF gbl_bd0in+D'3', 1
0A0C  9D04      	BCF gbl_bd0in,6, 1
0A0E  9B04      	BCF gbl_bd0in,5, 1
0A10  9904      	BCF gbl_bd0in,4, 1
0A12  9504      	BCF gbl_bd0in,2, 1
0A14  9304      	BCF gbl_bd0in,1, 1
0A16  9104      	BCF gbl_bd0in,0, 1
0A18  9F04      	BCF gbl_bd0in,7, 1
0A1A  0E0A      	MOVLW 0x0A
0A1C  0100      	MOVLB 0x00
0A1E  6FF8      	MOVWF CompTempVar917, 1
0A20  0E52      	MOVLW 0x52
0A22  6FF9      	MOVWF CompTempVar917+D'1', 1
0A24  0E20      	MOVLW 0x20
0A26  6FFA      	MOVWF CompTempVar917+D'2', 1
0A28  6BFB      	CLRF CompTempVar917+D'3', 1
0A2A  0E00      	MOVLW HIGH(CompTempVar917+D'0')
0A2C  0102      	MOVLB 0x02
0A2E  6F3F      	MOVWF serial_pri_00012_arg_str+D'1', 1
0A30  0EF8      	MOVLW LOW(CompTempVar917+D'0')
0A32  6F3E      	MOVWF serial_pri_00012_arg_str, 1
0A34  EC8CF000  	CALL serial_pri_00012
0A38  5068      	MOVF gbl_uir, W
0A3A  6F19      	MOVWF serial_pri_00015_arg_i, 1
0A3C  EC1AF003  	CALL serial_pri_00015
0A40  0012      	RETURN
0A42            ; } usb_handle_reset function end

	ORG 0x00000A42
0A42            usb_handle_0003A
0A42            ; { usb_handle_transaction ; function begin
0A42  306C      	RRCF gbl_ustat, W
0A44  0100      	MOVLB 0x00
0A46  6FF8      	MOVWF usb_handle_0003A_1_end_point, 1
0A48  33F8      	RRCF usb_handle_0003A_1_end_point, F, 1
0A4A  33F8      	RRCF usb_handle_0003A_1_end_point, F, 1
0A4C  0E1F      	MOVLW 0x1F
0A4E  17F8      	ANDWF usb_handle_0003A_1_end_point, F, 1
0A50  A46C      	BTFSS gbl_ustat,2
0A52  D01A      	BRA	label61
0A54  0E0A      	MOVLW 0x0A
0A56  6FFA      	MOVWF CompTempVar859, 1
0A58  0E44      	MOVLW 0x44
0A5A  6FFB      	MOVWF CompTempVar859+D'1', 1
0A5C  0E49      	MOVLW 0x49
0A5E  6FFC      	MOVWF CompTempVar859+D'2', 1
0A60  0E20      	MOVLW 0x20
0A62  6FFD      	MOVWF CompTempVar859+D'3', 1
0A64  6BFE      	CLRF CompTempVar859+D'4', 1
0A66  0E00      	MOVLW HIGH(CompTempVar859+D'0')
0A68  0102      	MOVLB 0x02
0A6A  6F3F      	MOVWF serial_pri_00012_arg_str+D'1', 1
0A6C  0EFA      	MOVLW LOW(CompTempVar859+D'0')
0A6E  6F3E      	MOVWF serial_pri_00012_arg_str, 1
0A70  EC8CF000  	CALL serial_pri_00012
0A74  0104      	MOVLB 0x04
0A76  3104      	RRCF gbl_bd0in, W, 1
0A78  0100      	MOVLB 0x00
0A7A  6FF9      	MOVWF usb_handle_0003A_1_pid, 1
0A7C  33F9      	RRCF usb_handle_0003A_1_pid, F, 1
0A7E  0E3F      	MOVLW 0x3F
0A80  17F9      	ANDWF usb_handle_0003A_1_pid, F, 1
0A82  0E0F      	MOVLW 0x0F
0A84  17F9      	ANDWF usb_handle_0003A_1_pid, F, 1
0A86  D01A      	BRA	label62
0A88            label61
0A88  0104      	MOVLB 0x04
0A8A  3100      	RRCF gbl_bd0out, W, 1
0A8C  0100      	MOVLB 0x00
0A8E  6FFA      	MOVWF CompTempVar862, 1
0A90  33FA      	RRCF CompTempVar862, F, 1
0A92  0E3F      	MOVLW 0x3F
0A94  17FA      	ANDWF CompTempVar862, F, 1
0A96  0E0F      	MOVLW 0x0F
0A98  15FA      	ANDWF CompTempVar862, W, 1
0A9A  6FF9      	MOVWF usb_handle_0003A_1_pid, 1
0A9C  0E0A      	MOVLW 0x0A
0A9E  6FFA      	MOVWF CompTempVar863, 1
0AA0  0E44      	MOVLW 0x44
0AA2  6FFB      	MOVWF CompTempVar863+D'1', 1
0AA4  0E4F      	MOVLW 0x4F
0AA6  6FFC      	MOVWF CompTempVar863+D'2', 1
0AA8  0E20      	MOVLW 0x20
0AAA  6FFD      	MOVWF CompTempVar863+D'3', 1
0AAC  6BFE      	CLRF CompTempVar863+D'4', 1
0AAE  0E00      	MOVLW HIGH(CompTempVar863+D'0')
0AB0  0102      	MOVLB 0x02
0AB2  6F3F      	MOVWF serial_pri_00012_arg_str+D'1', 1
0AB4  0EFA      	MOVLW LOW(CompTempVar863+D'0')
0AB6  6F3E      	MOVWF serial_pri_00012_arg_str, 1
0AB8  EC8CF000  	CALL serial_pri_00012
0ABC            label62
0ABC  0100      	MOVLB 0x00
0ABE  53F8      	MOVF usb_handle_0003A_1_end_point, F, 1
0AC0  E00D      	BZ	label63
0AC2  0E45      	MOVLW 0x45
0AC4  0102      	MOVLB 0x02
0AC6  6F41      	MOVWF serial_put_00010_arg_c, 1
0AC8  EC57F000  	CALL serial_put_00010
0ACC  0100      	MOVLB 0x00
0ACE  51F8      	MOVF usb_handle_0003A_1_end_point, W, 1
0AD0  0102      	MOVLB 0x02
0AD2  6F19      	MOVWF serial_pri_00015_arg_i, 1
0AD4  EC1AF003  	CALL serial_pri_00015
0AD8  EC54F001  	CALL serial_pri_00018
0ADC            label63
0ADC  0100      	MOVLB 0x00
0ADE  53F8      	MOVF usb_handle_0003A_1_end_point, F, 1
0AE0  A4D8      	BTFSS STATUS,Z
0AE2  D297      	BRA	label85
0AE4  0E0D      	MOVLW 0x0D
0AE6  63F9      	CPFSEQ usb_handle_0003A_1_pid, 1
0AE8  D12E      	BRA	label70
0AEA  0E00      	MOVLW HIGH(gbl_usb_sdp+D'0')
0AEC  6FFE      	MOVWF memcpy8_00000_arg_dst+D'1', 1
0AEE  0E9E      	MOVLW LOW(gbl_usb_sdp+D'0')
0AF0  6FFD      	MOVWF memcpy8_00000_arg_dst, 1
0AF2  0E05      	MOVLW HIGH(gbl_buffer_0_out+D'0')
0AF4  0101      	MOVLB 0x01
0AF6  6FFF      	MOVWF memcpy8_00000_arg_src+D'1', 1
0AF8  0E00      	MOVLW LOW(gbl_buffer_0_out+D'0')
0AFA  6FFE      	MOVWF memcpy8_00000_arg_src, 1
0AFC  0E08      	MOVLW 0x08
0AFE  0100      	MOVLB 0x00
0B00  6FFF      	MOVWF memcpy8_00000_arg_len, 1
0B02  ECA3F004  	CALL memcpy8_00000
0B06  EC39F003  	CALL usb_prime__00040
0B0A  0E20      	MOVLW 0x20
0B0C  0102      	MOVLB 0x02
0B0E  6F11      	MOVWF CompTempVar873, 1
0B10  6F17      	MOVWF CompTempVar873+D'6', 1
0B12  0E53      	MOVLW 0x53
0B14  6F12      	MOVWF CompTempVar873+D'1', 1
0B16  0E65      	MOVLW 0x65
0B18  6F13      	MOVWF CompTempVar873+D'2', 1
0B1A  0E70      	MOVLW 0x70
0B1C  6F16      	MOVWF CompTempVar873+D'5', 1
0B1E  0E74      	MOVLW 0x74
0B20  6F14      	MOVWF CompTempVar873+D'3', 1
0B22  0E75      	MOVLW 0x75
0B24  6F15      	MOVWF CompTempVar873+D'4', 1
0B26  6B18      	CLRF CompTempVar873+D'7', 1
0B28  0E02      	MOVLW HIGH(CompTempVar873+D'0')
0B2A  6F3F      	MOVWF serial_pri_00012_arg_str+D'1', 1
0B2C  0E11      	MOVLW LOW(CompTempVar873+D'0')
0B2E  6F3E      	MOVWF serial_pri_00012_arg_str, 1
0B30  EC8CF000  	CALL serial_pri_00012
0B34  0100      	MOVLB 0x00
0B36  519E      	MOVF gbl_usb_sdp, W, 1
0B38  0102      	MOVLB 0x02
0B3A  6F19      	MOVWF serial_pri_00015_arg_i, 1
0B3C  EC1AF003  	CALL serial_pri_00015
0B40  0E20      	MOVLW 0x20
0B42  6F41      	MOVWF serial_put_00010_arg_c, 1
0B44  EC57F000  	CALL serial_put_00010
0B48  0100      	MOVLB 0x00
0B4A  AF9E      	BTFSS gbl_usb_sdp,7, 1
0B4C  D022      	BRA	label64
0B4E  0E20      	MOVLW 0x20
0B50  0102      	MOVLB 0x02
0B52  6F11      	MOVWF CompTempVar875, 1
0B54  6F16      	MOVWF CompTempVar875+D'5', 1
0B56  6F1F      	MOVWF CompTempVar875+D'14', 1
0B58  0E3D      	MOVLW 0x3D
0B5A  6F1C      	MOVWF CompTempVar875+D'11', 1
0B5C  0E44      	MOVLW 0x44
0B5E  6F12      	MOVWF CompTempVar875+D'1', 1
0B60  0E49      	MOVLW 0x49
0B62  6F1D      	MOVWF CompTempVar875+D'12', 1
0B64  0E4E      	MOVLW 0x4E
0B66  6F1E      	MOVWF CompTempVar875+D'13', 1
0B68  0E61      	MOVLW 0x61
0B6A  6F13      	MOVWF CompTempVar875+D'2', 1
0B6C  6F15      	MOVWF CompTempVar875+D'4', 1
0B6E  6F19      	MOVWF CompTempVar875+D'8', 1
0B70  0E65      	MOVLW 0x65
0B72  6F1B      	MOVWF CompTempVar875+D'10', 1
0B74  0E67      	MOVLW 0x67
0B76  6F1A      	MOVWF CompTempVar875+D'9', 1
0B78  0E73      	MOVLW 0x73
0B7A  6F17      	MOVWF CompTempVar875+D'6', 1
0B7C  0E74      	MOVLW 0x74
0B7E  6F14      	MOVWF CompTempVar875+D'3', 1
0B80  6F18      	MOVWF CompTempVar875+D'7', 1
0B82  6B20      	CLRF CompTempVar875+D'15', 1
0B84  0E02      	MOVLW HIGH(CompTempVar875+D'0')
0B86  6F3F      	MOVWF serial_pri_00012_arg_str+D'1', 1
0B88  0E11      	MOVLW LOW(CompTempVar875+D'0')
0B8A  6F3E      	MOVWF serial_pri_00012_arg_str, 1
0B8C  EC8CF000  	CALL serial_pri_00012
0B90  D028      	BRA	label65
0B92            label64
0B92  0E20      	MOVLW 0x20
0B94  0102      	MOVLB 0x02
0B96  6F11      	MOVWF CompTempVar877, 1
0B98  6F16      	MOVWF CompTempVar877+D'5', 1
0B9A  6F23      	MOVWF CompTempVar877+D'18', 1
0B9C  0E2F      	MOVLW 0x2F
0B9E  6F20      	MOVWF CompTempVar877+D'15', 1
0BA0  0E3D      	MOVLW 0x3D
0BA2  6F1C      	MOVWF CompTempVar877+D'11', 1
0BA4  0E44      	MOVLW 0x44
0BA6  6F12      	MOVWF CompTempVar877+D'1', 1
0BA8  0E4E      	MOVLW 0x4E
0BAA  6F21      	MOVWF CompTempVar877+D'16', 1
0BAC  0E4F      	MOVLW 0x4F
0BAE  6F1D      	MOVWF CompTempVar877+D'12', 1
0BB0  6F22      	MOVWF CompTempVar877+D'17', 1
0BB2  0E54      	MOVLW 0x54
0BB4  6F1F      	MOVWF CompTempVar877+D'14', 1
0BB6  0E55      	MOVLW 0x55
0BB8  6F1E      	MOVWF CompTempVar877+D'13', 1
0BBA  0E61      	MOVLW 0x61
0BBC  6F13      	MOVWF CompTempVar877+D'2', 1
0BBE  6F15      	MOVWF CompTempVar877+D'4', 1
0BC0  6F19      	MOVWF CompTempVar877+D'8', 1
0BC2  0E65      	MOVLW 0x65
0BC4  6F1B      	MOVWF CompTempVar877+D'10', 1
0BC6  0E67      	MOVLW 0x67
0BC8  6F1A      	MOVWF CompTempVar877+D'9', 1
0BCA  0E73      	MOVLW 0x73
0BCC  6F17      	MOVWF CompTempVar877+D'6', 1
0BCE  0E74      	MOVLW 0x74
0BD0  6F14      	MOVWF CompTempVar877+D'3', 1
0BD2  6F18      	MOVWF CompTempVar877+D'7', 1
0BD4  6B24      	CLRF CompTempVar877+D'19', 1
0BD6  0E02      	MOVLW HIGH(CompTempVar877+D'0')
0BD8  6F3F      	MOVWF serial_pri_00012_arg_str+D'1', 1
0BDA  0E11      	MOVLW LOW(CompTempVar877+D'0')
0BDC  6F3E      	MOVWF serial_pri_00012_arg_str, 1
0BDE  EC8CF000  	CALL serial_pri_00012
0BE2            label65
0BE2  0E40      	MOVLW 0x40
0BE4  0100      	MOVLB 0x00
0BE6  159E      	ANDWF gbl_usb_sdp, W, 1
0BE8  6FFA      	MOVWF CompTempVar867, 1
0BEA  67FA      	TSTFSZ CompTempVar867, 1
0BEC  D049      	BRA	label67
0BEE  0E20      	MOVLW 0x20
0BF0  159E      	ANDWF gbl_usb_sdp, W, 1
0BF2  6FFB      	MOVWF CompTempVar868, 1
0BF4  67FB      	TSTFSZ CompTempVar868, 1
0BF6  D044      	BRA	label67
0BF8  0E1F      	MOVLW 0x1F
0BFA  159E      	ANDWF gbl_usb_sdp, W, 1
0BFC  6FFD      	MOVWF CompTempVar879, 1
0BFE  53FD      	MOVF CompTempVar879, F, 1
0C00  E00B      	BZ	label66
0C02  0E1F      	MOVLW 0x1F
0C04  159E      	ANDWF gbl_usb_sdp, W, 1
0C06  6FFE      	MOVWF CompTempVar880, 1
0C08  05FE      	DECF CompTempVar880, W, 1
0C0A  E006      	BZ	label66
0C0C  0E1F      	MOVLW 0x1F
0C0E  159E      	ANDWF gbl_usb_sdp, W, 1
0C10  6FFF      	MOVWF CompTempVar881, 1
0C12  0E03      	MOVLW 0x03
0C14  63FF      	CPFSEQ CompTempVar881, 1
0C16  D000      	BRA	label66
0C18            label66
0C18  0E20      	MOVLW 0x20
0C1A  0102      	MOVLB 0x02
0C1C  6F11      	MOVWF CompTempVar882, 1
0C1E  6F15      	MOVWF CompTempVar882+D'4', 1
0C20  0E64      	MOVLW 0x64
0C22  6F14      	MOVWF CompTempVar882+D'3', 1
0C24  0E73      	MOVLW 0x73
0C26  6F12      	MOVWF CompTempVar882+D'1', 1
0C28  0E74      	MOVLW 0x74
0C2A  6F13      	MOVWF CompTempVar882+D'2', 1
0C2C  6B16      	CLRF CompTempVar882+D'5', 1
0C2E  0E02      	MOVLW HIGH(CompTempVar882+D'0')
0C30  6F3F      	MOVWF serial_pri_00012_arg_str+D'1', 1
0C32  0E11      	MOVLW LOW(CompTempVar882+D'0')
0C34  6F3E      	MOVWF serial_pri_00012_arg_str, 1
0C36  EC8CF000  	CALL serial_pri_00012
0C3A  0100      	MOVLB 0x00
0C3C  51A5      	MOVF gbl_usb_sdp+D'7', W, 1
0C3E  0102      	MOVLB 0x02
0C40  6F18      	MOVWF usb_handle_00041_arg_sdp+D'7', 1
0C42  0100      	MOVLB 0x00
0C44  51A4      	MOVF gbl_usb_sdp+D'6', W, 1
0C46  0102      	MOVLB 0x02
0C48  6F17      	MOVWF usb_handle_00041_arg_sdp+D'6', 1
0C4A  0100      	MOVLB 0x00
0C4C  51A3      	MOVF gbl_usb_sdp+D'5', W, 1
0C4E  0102      	MOVLB 0x02
0C50  6F16      	MOVWF usb_handle_00041_arg_sdp+D'5', 1
0C52  0100      	MOVLB 0x00
0C54  51A2      	MOVF gbl_usb_sdp+D'4', W, 1
0C56  0102      	MOVLB 0x02
0C58  6F15      	MOVWF usb_handle_00041_arg_sdp+D'4', 1
0C5A  0100      	MOVLB 0x00
0C5C  51A1      	MOVF gbl_usb_sdp+D'3', W, 1
0C5E  0102      	MOVLB 0x02
0C60  6F14      	MOVWF usb_handle_00041_arg_sdp+D'3', 1
0C62  0100      	MOVLB 0x00
0C64  51A0      	MOVF gbl_usb_sdp+D'2', W, 1
0C66  0102      	MOVLB 0x02
0C68  6F13      	MOVWF usb_handle_00041_arg_sdp+D'2', 1
0C6A  0100      	MOVLB 0x00
0C6C  519F      	MOVF gbl_usb_sdp+D'1', W, 1
0C6E  0102      	MOVLB 0x02
0C70  6F12      	MOVWF usb_handle_00041_arg_sdp+D'1', 1
0C72  0100      	MOVLB 0x00
0C74  519E      	MOVF gbl_usb_sdp, W, 1
0C76  0102      	MOVLB 0x02
0C78  6F11      	MOVWF usb_handle_00041_arg_sdp, 1
0C7A  EC4DF003  	CALL usb_handle_00041
0C7E  D061      	BRA	label69
0C80            label67
0C80  0E40      	MOVLW 0x40
0C82  159E      	ANDWF gbl_usb_sdp, W, 1
0C84  6FFC      	MOVWF CompTempVar870, 1
0C86  67FC      	TSTFSZ CompTempVar870, 1
0C88  D039      	BRA	label68
0C8A  AB9E      	BTFSS gbl_usb_sdp,5, 1
0C8C  D037      	BRA	label68
0C8E  0E20      	MOVLW 0x20
0C90  0102      	MOVLB 0x02
0C92  6F11      	MOVWF CompTempVar884, 1
0C94  6F17      	MOVWF CompTempVar884+D'6', 1
0C96  0E61      	MOVLW 0x61
0C98  6F14      	MOVWF CompTempVar884+D'3', 1
0C9A  0E63      	MOVLW 0x63
0C9C  6F12      	MOVWF CompTempVar884+D'1', 1
0C9E  0E6C      	MOVLW 0x6C
0CA0  6F13      	MOVWF CompTempVar884+D'2', 1
0CA2  0E73      	MOVLW 0x73
0CA4  6F15      	MOVWF CompTempVar884+D'4', 1
0CA6  6F16      	MOVWF CompTempVar884+D'5', 1
0CA8  6B18      	CLRF CompTempVar884+D'7', 1
0CAA  0E02      	MOVLW HIGH(CompTempVar884+D'0')
0CAC  6F3F      	MOVWF serial_pri_00012_arg_str+D'1', 1
0CAE  0E11      	MOVLW LOW(CompTempVar884+D'0')
0CB0  6F3E      	MOVWF serial_pri_00012_arg_str, 1
0CB2  EC8CF000  	CALL serial_pri_00012
0CB6  0100      	MOVLB 0x00
0CB8  51A5      	MOVF gbl_usb_sdp+D'7', W, 1
0CBA  0102      	MOVLB 0x02
0CBC  6F18      	MOVWF usb_handle_00022_arg_sdp+D'7', 1
0CBE  0100      	MOVLB 0x00
0CC0  51A4      	MOVF gbl_usb_sdp+D'6', W, 1
0CC2  0102      	MOVLB 0x02
0CC4  6F17      	MOVWF usb_handle_00022_arg_sdp+D'6', 1
0CC6  0100      	MOVLB 0x00
0CC8  51A3      	MOVF gbl_usb_sdp+D'5', W, 1
0CCA  0102      	MOVLB 0x02
0CCC  6F16      	MOVWF usb_handle_00022_arg_sdp+D'5', 1
0CCE  0100      	MOVLB 0x00
0CD0  51A2      	MOVF gbl_usb_sdp+D'4', W, 1
0CD2  0102      	MOVLB 0x02
0CD4  6F15      	MOVWF usb_handle_00022_arg_sdp+D'4', 1
0CD6  0100      	MOVLB 0x00
0CD8  51A1      	MOVF gbl_usb_sdp+D'3', W, 1
0CDA  0102      	MOVLB 0x02
0CDC  6F14      	MOVWF usb_handle_00022_arg_sdp+D'3', 1
0CDE  0100      	MOVLB 0x00
0CE0  51A0      	MOVF gbl_usb_sdp+D'2', W, 1
0CE2  0102      	MOVLB 0x02
0CE4  6F13      	MOVWF usb_handle_00022_arg_sdp+D'2', 1
0CE6  0100      	MOVLB 0x00
0CE8  519F      	MOVF gbl_usb_sdp+D'1', W, 1
0CEA  0102      	MOVLB 0x02
0CEC  6F12      	MOVWF usb_handle_00022_arg_sdp+D'1', 1
0CEE  0100      	MOVLB 0x00
0CF0  519E      	MOVF gbl_usb_sdp, W, 1
0CF2  0102      	MOVLB 0x02
0CF4  6F11      	MOVWF usb_handle_00022_arg_sdp, 1
0CF6  EC4AF004  	CALL usb_handle_00022
0CFA  D023      	BRA	label69
0CFC            label68
0CFC  0E20      	MOVLW 0x20
0CFE  0102      	MOVLB 0x02
0D00  6F11      	MOVWF CompTempVar886, 1
0D02  6F17      	MOVWF CompTempVar886+D'6', 1
0D04  0E3D      	MOVLW 0x3D
0D06  6F19      	MOVWF CompTempVar886+D'8', 1
0D08  0E3F      	MOVLW 0x3F
0D0A  6F12      	MOVWF CompTempVar886+D'1', 1
0D0C  6F13      	MOVWF CompTempVar886+D'2', 1
0D0E  0E65      	MOVLW 0x65
0D10  6F15      	MOVWF CompTempVar886+D'4', 1
0D12  0E71      	MOVLW 0x71
0D14  6F16      	MOVWF CompTempVar886+D'5', 1
0D16  0E72      	MOVLW 0x72
0D18  6F14      	MOVWF CompTempVar886+D'3', 1
0D1A  0E74      	MOVLW 0x74
0D1C  6F18      	MOVWF CompTempVar886+D'7', 1
0D1E  6B1A      	CLRF CompTempVar886+D'9', 1
0D20  0E02      	MOVLW HIGH(CompTempVar886+D'0')
0D22  6F3F      	MOVWF serial_pri_00012_arg_str+D'1', 1
0D24  0E11      	MOVLW LOW(CompTempVar886+D'0')
0D26  6F3E      	MOVWF serial_pri_00012_arg_str, 1
0D28  EC8CF000  	CALL serial_pri_00012
0D2C  0100      	MOVLB 0x00
0D2E  519E      	MOVF gbl_usb_sdp, W, 1
0D30  0102      	MOVLB 0x02
0D32  6F23      	MOVWF serial_pri_00014_arg_i, 1
0D34  6B24      	CLRF serial_pri_00014_arg_i+D'1', 1
0D36  EC5AF001  	CALL serial_pri_00014
0D3A  0E20      	MOVLW 0x20
0D3C  6F41      	MOVWF serial_put_00010_arg_c, 1
0D3E  EC57F000  	CALL serial_put_00010
0D42            label69
0D42  986D      	BCF gbl_ucon,4
0D44  0012      	RETURN
0D46            label70
0D46  0E09      	MOVLW 0x09
0D48  63F9      	CPFSEQ usb_handle_0003A_1_pid, 1
0D4A  D09E      	BRA	label76
0D4C  0E20      	MOVLW 0x20
0D4E  6FFA      	MOVWF CompTempVar888, 1
0D50  6FFD      	MOVWF CompTempVar888+D'3', 1
0D52  0E49      	MOVLW 0x49
0D54  6FFB      	MOVWF CompTempVar888+D'1', 1
0D56  0E4E      	MOVLW 0x4E
0D58  6FFC      	MOVWF CompTempVar888+D'2', 1
0D5A  6BFE      	CLRF CompTempVar888+D'4', 1
0D5C  0E00      	MOVLW HIGH(CompTempVar888+D'0')
0D5E  0102      	MOVLB 0x02
0D60  6F3F      	MOVWF serial_pri_00012_arg_str+D'1', 1
0D62  0EFA      	MOVLW LOW(CompTempVar888+D'0')
0D64  6F3E      	MOVWF serial_pri_00012_arg_str, 1
0D66  EC8CF000  	CALL serial_pri_00012
0D6A  0E03      	MOVLW 0x03
0D6C  0100      	MOVLB 0x00
0D6E  63DB      	CPFSEQ gbl_control_mode, 1
0D70  D003      	BRA	label71
0D72  ECDCF000  	CALL usb_send_d_0003D
0D76  0012      	RETURN
0D78            label71
0D78  0E06      	MOVLW 0x06
0D7A  63DB      	CPFSEQ gbl_control_mode, 1
0D7C  D01A      	BRA	label73
0D7E  6BDB      	CLRF gbl_control_mode, 1
0D80  05DD      	DECF gbl_usb_status, W, 1
0D82  E105      	BNZ	label72
0D84  0E02      	MOVLW 0x02
0D86  6FD9      	MOVWF gbl_usb_state, 1
0D88  51DA      	MOVF gbl_usb_address, W, 1
0D8A  6E6E      	MOVWF gbl_uaddr
0D8C  6BDD      	CLRF gbl_usb_status, 1
0D8E            label72
0D8E  0E20      	MOVLW 0x20
0D90  0102      	MOVLB 0x02
0D92  6F11      	MOVWF CompTempVar890, 1
0D94  0E2D      	MOVLW 0x2D
0D96  6F12      	MOVWF CompTempVar890+D'1', 1
0D98  6F13      	MOVWF CompTempVar890+D'2', 1
0D9A  6F14      	MOVWF CompTempVar890+D'3', 1
0D9C  6F15      	MOVWF CompTempVar890+D'4', 1
0D9E  0E0A      	MOVLW 0x0A
0DA0  6F16      	MOVWF CompTempVar890+D'5', 1
0DA2  6B17      	CLRF CompTempVar890+D'6', 1
0DA4  0E02      	MOVLW HIGH(CompTempVar890+D'0')
0DA6  6F3F      	MOVWF serial_pri_00012_arg_str+D'1', 1
0DA8  0E11      	MOVLW LOW(CompTempVar890+D'0')
0DAA  6F3E      	MOVWF serial_pri_00012_arg_str, 1
0DAC  EC8CF000  	CALL serial_pri_00012
0DB0  0012      	RETURN
0DB2            label73
0DB2  0E05      	MOVLW 0x05
0DB4  63DB      	CPFSEQ gbl_control_mode, 1
0DB6  D002      	BRA	label74
0DB8  0000      	NOP
0DBA  0012      	RETURN
0DBC            label74
0DBC  0E04      	MOVLW 0x04
0DBE  63DB      	CPFSEQ gbl_control_mode, 1
0DC0  D045      	BRA	label75
0DC2  0E20      	MOVLW 0x20
0DC4  0102      	MOVLB 0x02
0DC6  6F11      	MOVWF CompTempVar892, 1
0DC8  6F16      	MOVWF CompTempVar892+D'5', 1
0DCA  6F1B      	MOVWF CompTempVar892+D'10', 1
0DCC  6F20      	MOVWF CompTempVar892+D'15', 1
0DCE  6F26      	MOVWF CompTempVar892+D'21', 1
0DD0  6F2C      	MOVWF CompTempVar892+D'27', 1
0DD2  6F2E      	MOVWF CompTempVar892+D'29', 1
0DD4  6F33      	MOVWF CompTempVar892+D'34', 1
0DD6  6F36      	MOVWF CompTempVar892+D'37', 1
0DD8  6F3C      	MOVWF CompTempVar892+D'43', 1
0DDA  0E2D      	MOVLW 0x2D
0DDC  6F2D      	MOVWF CompTempVar892+D'28', 1
0DDE  0E3F      	MOVLW 0x3F
0DE0  6F3B      	MOVWF CompTempVar892+D'42', 1
0DE2  0E61      	MOVLW 0x61
0DE4  6F19      	MOVWF CompTempVar892+D'8', 1
0DE6  6F1D      	MOVWF CompTempVar892+D'12', 1
0DE8  6F1F      	MOVWF CompTempVar892+D'14', 1
0DEA  6F23      	MOVWF CompTempVar892+D'18', 1
0DEC  6F29      	MOVWF CompTempVar892+D'24', 1
0DEE  0E63      	MOVLW 0x63
0DF0  6F12      	MOVWF CompTempVar892+D'1', 1
0DF2  6F27      	MOVWF CompTempVar892+D'22', 1
0DF4  6F37      	MOVWF CompTempVar892+D'38', 1
0DF6  0E64      	MOVLW 0x64
0DF8  6F1A      	MOVWF CompTempVar892+D'9', 1
0DFA  6F1C      	MOVWF CompTempVar892+D'11', 1
0DFC  0E65      	MOVLW 0x65
0DFE  6F18      	MOVWF CompTempVar892+D'7', 1
0E00  6F25      	MOVWF CompTempVar892+D'20', 1
0E02  6F32      	MOVWF CompTempVar892+D'33', 1
0E04  6F3A      	MOVWF CompTempVar892+D'41', 1
0E06  0E67      	MOVLW 0x67
0E08  6F24      	MOVWF CompTempVar892+D'19', 1
0E0A  0E6C      	MOVLW 0x6C
0E0C  6F15      	MOVWF CompTempVar892+D'4', 1
0E0E  6F28      	MOVWF CompTempVar892+D'23', 1
0E10  0E6D      	MOVLW 0x6D
0E12  6F2F      	MOVWF CompTempVar892+D'30', 1
0E14  6F39      	MOVWF CompTempVar892+D'40', 1
0E16  0E6F      	MOVLW 0x6F
0E18  6F30      	MOVWF CompTempVar892+D'31', 1
0E1A  6F35      	MOVWF CompTempVar892+D'36', 1
0E1C  6F38      	MOVWF CompTempVar892+D'39', 1
0E1E  0E72      	MOVLW 0x72
0E20  6F14      	MOVWF CompTempVar892+D'3', 1
0E22  6F17      	MOVWF CompTempVar892+D'6', 1
0E24  6F31      	MOVWF CompTempVar892+D'32', 1
0E26  0E73      	MOVLW 0x73
0E28  6F21      	MOVWF CompTempVar892+D'16', 1
0E2A  6F2A      	MOVWF CompTempVar892+D'25', 1
0E2C  6F2B      	MOVWF CompTempVar892+D'26', 1
0E2E  0E74      	MOVLW 0x74
0E30  6F13      	MOVWF CompTempVar892+D'2', 1
0E32  6F1E      	MOVWF CompTempVar892+D'13', 1
0E34  6F22      	MOVWF CompTempVar892+D'17', 1
0E36  6F34      	MOVWF CompTempVar892+D'35', 1
0E38  6B3D      	CLRF CompTempVar892+D'44', 1
0E3A  0E02      	MOVLW HIGH(CompTempVar892+D'0')
0E3C  6F3F      	MOVWF serial_pri_00012_arg_str+D'1', 1
0E3E  0E11      	MOVLW LOW(CompTempVar892+D'0')
0E40  6F3E      	MOVWF serial_pri_00012_arg_str, 1
0E42  EC8CF000  	CALL serial_pri_00012
0E46  EC49F004  	CALL usb_handle_00023
0E4A  0012      	RETURN
0E4C            label75
0E4C  0E20      	MOVLW 0x20
0E4E  0102      	MOVLB 0x02
0E50  6F11      	MOVWF CompTempVar894, 1
0E52  6F14      	MOVWF CompTempVar894+D'3', 1
0E54  0E3D      	MOVLW 0x3D
0E56  6F17      	MOVWF CompTempVar894+D'6', 1
0E58  0E3F      	MOVLW 0x3F
0E5A  6F12      	MOVWF CompTempVar894+D'1', 1
0E5C  6F13      	MOVWF CompTempVar894+D'2', 1
0E5E  0E63      	MOVLW 0x63
0E60  6F15      	MOVWF CompTempVar894+D'4', 1
0E62  0E6D      	MOVLW 0x6D
0E64  6F16      	MOVWF CompTempVar894+D'5', 1
0E66  6B18      	CLRF CompTempVar894+D'7', 1
0E68  0E02      	MOVLW HIGH(CompTempVar894+D'0')
0E6A  6F3F      	MOVWF serial_pri_00012_arg_str+D'1', 1
0E6C  0E11      	MOVLW LOW(CompTempVar894+D'0')
0E6E  6F3E      	MOVWF serial_pri_00012_arg_str, 1
0E70  EC8CF000  	CALL serial_pri_00012
0E74  0100      	MOVLB 0x00
0E76  51DB      	MOVF gbl_control_mode, W, 1
0E78  0102      	MOVLB 0x02
0E7A  6F23      	MOVWF serial_pri_00014_arg_i, 1
0E7C  6B24      	CLRF serial_pri_00014_arg_i+D'1', 1
0E7E  EC5AF001  	CALL serial_pri_00014
0E82  EC54F001  	CALL serial_pri_00018
0E86  0012      	RETURN
0E88            label76
0E88  0E02      	MOVLW 0x02
0E8A  63F9      	CPFSEQ usb_handle_0003A_1_pid, 1
0E8C  D049      	BRA	label79
0E8E  0E2A      	MOVLW 0x2A
0E90  0102      	MOVLB 0x02
0E92  6F11      	MOVWF CompTempVar896, 1
0E94  6F12      	MOVWF CompTempVar896+D'1', 1
0E96  6F13      	MOVWF CompTempVar896+D'2', 1
0E98  6F14      	MOVWF CompTempVar896+D'3', 1
0E9A  0E41      	MOVLW 0x41
0E9C  6F15      	MOVWF CompTempVar896+D'4', 1
0E9E  0E0A      	MOVLW 0x0A
0EA0  6F16      	MOVWF CompTempVar896+D'5', 1
0EA2  6B17      	CLRF CompTempVar896+D'6', 1
0EA4  0E02      	MOVLW HIGH(CompTempVar896+D'0')
0EA6  6F3F      	MOVWF serial_pri_00012_arg_str+D'1', 1
0EA8  0E11      	MOVLW LOW(CompTempVar896+D'0')
0EAA  6F3E      	MOVWF serial_pri_00012_arg_str, 1
0EAC  EC8CF000  	CALL serial_pri_00012
0EB0  0E03      	MOVLW 0x03
0EB2  0100      	MOVLB 0x00
0EB4  63DB      	CPFSEQ gbl_control_mode, 1
0EB6  D012      	BRA	label77
0EB8  0E20      	MOVLW 0x20
0EBA  6FFA      	MOVWF CompTempVar898, 1
0EBC  6FFD      	MOVWF CompTempVar898+D'3', 1
0EBE  0E26      	MOVLW 0x26
0EC0  6FFB      	MOVWF CompTempVar898+D'1', 1
0EC2  0E32      	MOVLW 0x32
0EC4  6FFC      	MOVWF CompTempVar898+D'2', 1
0EC6  6BFE      	CLRF CompTempVar898+D'4', 1
0EC8  0E00      	MOVLW HIGH(CompTempVar898+D'0')
0ECA  0102      	MOVLB 0x02
0ECC  6F3F      	MOVWF serial_pri_00012_arg_str+D'1', 1
0ECE  0EFA      	MOVLW LOW(CompTempVar898+D'0')
0ED0  6F3E      	MOVWF serial_pri_00012_arg_str, 1
0ED2  EC8CF000  	CALL serial_pri_00012
0ED6  ECDCF000  	CALL usb_send_d_0003D
0EDA  0012      	RETURN
0EDC            label77
0EDC  0E04      	MOVLW 0x04
0EDE  63DB      	CPFSEQ gbl_control_mode, 1
0EE0  D003      	BRA	label78
0EE2  EC49F004  	CALL usb_handle_00023
0EE6  0012      	RETURN
0EE8            label78
0EE8  0E06      	MOVLW 0x06
0EEA  63DB      	CPFSEQ gbl_control_mode, 1
0EEC  0012      	RETURN
0EEE  0E20      	MOVLW 0x20
0EF0  0102      	MOVLB 0x02
0EF2  6F11      	MOVWF CompTempVar900, 1
0EF4  6F14      	MOVWF CompTempVar900+D'3', 1
0EF6  6F19      	MOVWF CompTempVar900+D'8', 1
0EF8  0E65      	MOVLW 0x65
0EFA  6F16      	MOVWF CompTempVar900+D'5', 1
0EFC  0E6E      	MOVLW 0x6E
0EFE  6F17      	MOVWF CompTempVar900+D'6', 1
0F00  0E73      	MOVLW 0x73
0F02  6F12      	MOVWF CompTempVar900+D'1', 1
0F04  6F15      	MOVWF CompTempVar900+D'4', 1
0F06  0E74      	MOVLW 0x74
0F08  6F13      	MOVWF CompTempVar900+D'2', 1
0F0A  6F18      	MOVWF CompTempVar900+D'7', 1
0F0C  6B1A      	CLRF CompTempVar900+D'9', 1
0F0E  0E02      	MOVLW HIGH(CompTempVar900+D'0')
0F10  6F3F      	MOVWF serial_pri_00012_arg_str+D'1', 1
0F12  0E11      	MOVLW LOW(CompTempVar900+D'0')
0F14  6F3E      	MOVWF serial_pri_00012_arg_str, 1
0F16  EC8CF000  	CALL serial_pri_00012
0F1A  0100      	MOVLB 0x00
0F1C  6BDB      	CLRF gbl_control_mode, 1
0F1E  0012      	RETURN
0F20            label79
0F20  05F9      	DECF usb_handle_0003A_1_pid, W, 1
0F22  E157      	BNZ	label84
0F24  0E05      	MOVLW 0x05
0F26  63DB      	CPFSEQ gbl_control_mode, 1
0F28  D014      	BRA	label80
0F2A  0E20      	MOVLW 0x20
0F2C  0102      	MOVLB 0x02
0F2E  6F11      	MOVWF CompTempVar902, 1
0F30  0E2D      	MOVLW 0x2D
0F32  6F12      	MOVWF CompTempVar902+D'1', 1
0F34  6F13      	MOVWF CompTempVar902+D'2', 1
0F36  6F14      	MOVWF CompTempVar902+D'3', 1
0F38  6F15      	MOVWF CompTempVar902+D'4', 1
0F3A  0E0A      	MOVLW 0x0A
0F3C  6F16      	MOVWF CompTempVar902+D'5', 1
0F3E  6B17      	CLRF CompTempVar902+D'6', 1
0F40  0E02      	MOVLW HIGH(CompTempVar902+D'0')
0F42  6F3F      	MOVWF serial_pri_00012_arg_str+D'1', 1
0F44  0E11      	MOVLW LOW(CompTempVar902+D'0')
0F46  6F3E      	MOVWF serial_pri_00012_arg_str, 1
0F48  EC8CF000  	CALL serial_pri_00012
0F4C  0100      	MOVLB 0x00
0F4E  6BDB      	CLRF gbl_control_mode, 1
0F50  D03D      	BRA	label83
0F52            label80
0F52  0E02      	MOVLW 0x02
0F54  63DB      	CPFSEQ gbl_control_mode, 1
0F56  D00C      	BRA	label81
0F58  0E05      	MOVLW HIGH(gbl_buffer_0_out+D'0')
0F5A  6FFB      	MOVWF usb_handle_00024_arg_data+D'1', 1
0F5C  0E00      	MOVLW LOW(gbl_buffer_0_out+D'0')
0F5E  6FFA      	MOVWF usb_handle_00024_arg_data, 1
0F60  0104      	MOVLB 0x04
0F62  5101      	MOVF gbl_bd0out+D'1', W, 1
0F64  0100      	MOVLB 0x00
0F66  6FFC      	MOVWF usb_handle_00024_arg_count, 1
0F68  6BFD      	CLRF usb_handle_00024_arg_count+D'1', 1
0F6A  EC48F004  	CALL usb_handle_00024
0F6E  D02E      	BRA	label83
0F70            label81
0F70  0E03      	MOVLW 0x03
0F72  63DB      	CPFSEQ gbl_control_mode, 1
0F74  D002      	BRA	label82
0F76  6BDB      	CLRF gbl_control_mode, 1
0F78  D029      	BRA	label83
0F7A            label82
0F7A  0E20      	MOVLW 0x20
0F7C  0102      	MOVLB 0x02
0F7E  6F16      	MOVWF CompTempVar905+D'5', 1
0F80  6F1E      	MOVWF CompTempVar905+D'13', 1
0F82  0E3F      	MOVLW 0x3F
0F84  6F11      	MOVWF CompTempVar905, 1
0F86  6F12      	MOVWF CompTempVar905+D'1', 1
0F88  0E4F      	MOVLW 0x4F
0F8A  6F1B      	MOVWF CompTempVar905+D'10', 1
0F8C  0E54      	MOVLW 0x54
0F8E  6F1D      	MOVWF CompTempVar905+D'12', 1
0F90  0E55      	MOVLW 0x55
0F92  6F1C      	MOVWF CompTempVar905+D'11', 1
0F94  0E5F      	MOVLW 0x5F
0F96  6F1A      	MOVWF CompTempVar905+D'9', 1
0F98  0E64      	MOVLW 0x64
0F9A  6F19      	MOVWF CompTempVar905+D'8', 1
0F9C  0E69      	MOVLW 0x69
0F9E  6F18      	MOVWF CompTempVar905+D'7', 1
0FA0  0E6B      	MOVLW 0x6B
0FA2  6F15      	MOVWF CompTempVar905+D'4', 1
0FA4  0E6E      	MOVLW 0x6E
0FA6  6F14      	MOVWF CompTempVar905+D'3', 1
0FA8  0E70      	MOVLW 0x70
0FAA  6F17      	MOVWF CompTempVar905+D'6', 1
0FAC  0E75      	MOVLW 0x75
0FAE  6F13      	MOVWF CompTempVar905+D'2', 1
0FB0  6B1F      	CLRF CompTempVar905+D'14', 1
0FB2  0E02      	MOVLW HIGH(CompTempVar905+D'0')
0FB4  6F3F      	MOVWF serial_pri_00012_arg_str+D'1', 1
0FB6  0E11      	MOVLW LOW(CompTempVar905+D'0')
0FB8  6F3E      	MOVWF serial_pri_00012_arg_str, 1
0FBA  EC8CF000  	CALL serial_pri_00012
0FBE  0100      	MOVLB 0x00
0FC0  51DB      	MOVF gbl_control_mode, W, 1
0FC2  0102      	MOVLB 0x02
0FC4  6F23      	MOVWF serial_pri_00014_arg_i, 1
0FC6  6B24      	CLRF serial_pri_00014_arg_i+D'1', 1
0FC8  EC5AF001  	CALL serial_pri_00014
0FCC            label83
0FCC  EC39F003  	CALL usb_prime__00040
0FD0  0012      	RETURN
0FD2            label84
0FD2  0E20      	MOVLW 0x20
0FD4  0102      	MOVLB 0x02
0FD6  6F11      	MOVWF CompTempVar907, 1
0FD8  6F17      	MOVWF CompTempVar907+D'6', 1
0FDA  6F19      	MOVWF CompTempVar907+D'8', 1
0FDC  0E3D      	MOVLW 0x3D
0FDE  6F18      	MOVWF CompTempVar907+D'7', 1
0FE0  0E44      	MOVLW 0x44
0FE2  6F16      	MOVWF CompTempVar907+D'5', 1
0FE4  0E49      	MOVLW 0x49
0FE6  6F15      	MOVWF CompTempVar907+D'4', 1
0FE8  0E4B      	MOVLW 0x4B
0FEA  6F13      	MOVWF CompTempVar907+D'2', 1
0FEC  0E50      	MOVLW 0x50
0FEE  6F14      	MOVWF CompTempVar907+D'3', 1
0FF0  0E55      	MOVLW 0x55
0FF2  6F12      	MOVWF CompTempVar907+D'1', 1
0FF4  6B1A      	CLRF CompTempVar907+D'9', 1
0FF6  0E02      	MOVLW HIGH(CompTempVar907+D'0')
0FF8  6F3F      	MOVWF serial_pri_00012_arg_str+D'1', 1
0FFA  0E11      	MOVLW LOW(CompTempVar907+D'0')
0FFC  6F3E      	MOVWF serial_pri_00012_arg_str, 1
0FFE  EC8CF000  	CALL serial_pri_00012
1002  0100      	MOVLB 0x00
1004  51F9      	MOVF usb_handle_0003A_1_pid, W, 1
1006  0102      	MOVLB 0x02
1008  6F23      	MOVWF serial_pri_00014_arg_i, 1
100A  6B24      	CLRF serial_pri_00014_arg_i+D'1', 1
100C  EC5AF001  	CALL serial_pri_00014
1010  0012      	RETURN
1012            label85
1012  A46C      	BTFSS gbl_ustat,2
1014  D002      	BRA	label86
1016  0000      	NOP
1018  0012      	RETURN
101A            label86
101A  EE00F0AA  	LFSR 0x00,  gbl_ep_out_bd_location
101E  50E9      	MOVF FSR0L, W
1020  51F8      	MOVF usb_handle_0003A_1_end_point, W, 1
1022  6FFC      	MOVWF CompTempVar911, 1
1024  90D8      	BCF STATUS,C
1026  35FC      	RLCF CompTempVar911, W, 1
1028  26E9      	ADDWF FSR0L, F
102A  50EE      	MOVF POSTINC0, W
102C  6FFA      	MOVWF usb_handle_0003A_181_bd, 1
102E  50EF      	MOVF INDF0, W
1030  6FFB      	MOVWF usb_handle_0003A_181_bd+D'1', 1
1032  EE00F0BA  	LFSR 0x00,  gbl_ep_out_buffer_size
1036  50E9      	MOVF FSR0L, W
1038  51F8      	MOVF usb_handle_0003A_1_end_point, W, 1
103A  6FFC      	MOVWF CompTempVar914, 1
103C  90D8      	BCF STATUS,C
103E  37FC      	RLCF CompTempVar914, F, 1
1040  51FC      	MOVF CompTempVar914, W, 1
1042  26E9      	ADDWF FSR0L, F
1044  50EE      	MOVF POSTINC0, W
1046  6FFD      	MOVWF CompTempVar916, 1
1048  50EF      	MOVF INDF0, W
104A  6FFE      	MOVWF CompTempVar916+D'1', 1
104C  51FB      	MOVF usb_handle_0003A_181_bd+D'1', W, 1
104E  6EEA      	MOVWF FSR0H
1050  29FA      	INCF usb_handle_0003A_181_bd, W, 1
1052  6EE9      	MOVWF FSR0L
1054  51FD      	MOVF CompTempVar916, W, 1
1056  6EEF      	MOVWF INDF0
1058  06E9      	DECF FSR0L, F
105A  9CEF      	BCF INDF0,6
105C  9AEF      	BCF INDF0,5
105E  98EF      	BCF INDF0,4
1060  96EF      	BCF INDF0,3
1062  94EF      	BCF INDF0,2
1064  92EF      	BCF INDF0,1
1066  90EF      	BCF INDF0,0
1068  8EEF      	BSF INDF0,7
106A  0012      	RETURN
106C            ; } usb_handle_transaction function end

	ORG 0x0000106C
106C            handle_tic_00032
106C            ; { handle_tick ; function begin
106C  0100      	MOVLB 0x00
106E  4BC2      	INFSNZ gbl_22_tick, F, 1
1070  2BC3      	INCF gbl_22_tick+D'1', F, 1
1072  0012      	RETURN
1074            ; } handle_tick function end

	ORG 0x00001074
1074            usb_handle_0001D
1074            ; { usb_handle_isr ; function begin
1074  AAA1      	BTFSS gbl_pir2,5
1076  0012      	RETURN
1078  9AA1      	BCF gbl_pir2,5
107A  A668      	BTFSS gbl_uir,3
107C  D003      	BRA	label87
107E  EC21F005  	CALL usb_handle_0003A
1082  9668      	BCF gbl_uir,3
1084            label87
1084  A068      	BTFSS gbl_uir,0
1086  D003      	BRA	label88
1088  ECEBF004  	CALL usb_handle_0003B
108C  9068      	BCF gbl_uir,0
108E            label88
108E  AA68      	BTFSS gbl_uir,5
1090  0012      	RETURN
1092  ECD2F004  	CALL usb_handle_0003C
1096  9A68      	BCF gbl_uir,5
1098  0012      	RETURN
109A            ; } usb_handle_isr function end

	ORG 0x0000109A
109A            timer_0_ca_00038
109A            ; { timer_0_callback ; function begin
109A  EC36F008  	CALL handle_tic_00032
109E  0012      	RETURN
10A0            ; } timer_0_callback function end

	ORG 0x000010A0
10A0            turn_usb_i_0002F
10A0            ; { turn_usb_ints_on ; function begin
10A0  8A69      	BSF gbl_uie,5
10A2  8669      	BSF gbl_uie,3
10A4  8069      	BSF gbl_uie,0
10A6  8AA0      	BSF gbl_pie2,5
10A8  0012      	RETURN
10AA            ; } turn_usb_ints_on function end

	ORG 0x000010AA
10AA            timer_star_00036
10AA            ; { timer_start_0 ; function begin
10AA  0100      	MOVLB 0x00
10AC  51C5      	MOVF gbl_timer_0_start_value+D'1', W, 1
10AE  6ED7      	MOVWF gbl_tmr0h
10B0  51C4      	MOVF gbl_timer_0_start_value, W, 1
10B2  6ED6      	MOVWF gbl_tmr0l
10B4  8ED5      	BSF gbl_t0con,7
10B6  0012      	RETURN
10B8            ; } timer_start_0 function end

	ORG 0x000010B8
10B8            timer_setu_00033
10B8            ; { timer_setup_0 ; function begin
10B8  9ED5      	BCF gbl_t0con,7
10BA  A1EB      	BTFSS timer_setu_00033_arg_mode_8_bit,0, 1
10BC  D002      	BRA	label89
10BE  8CD5      	BSF gbl_t0con,6
10C0  D001      	BRA	label90
10C2            label89
10C2  9CD5      	BCF gbl_t0con,6
10C4            label90
10C4  9AD5      	BCF gbl_t0con,5
10C6  29EC      	INCF timer_setu_00033_arg_presc_00034, W, 1
10C8  E102      	BNZ	label91
10CA  86D5      	BSF gbl_t0con,3
10CC  D005      	BRA	label92
10CE            label91
10CE  96D5      	BCF gbl_t0con,3
10D0  0EF8      	MOVLW 0xF8
10D2  16D5      	ANDWF gbl_t0con, F
10D4  51EC      	MOVF timer_setu_00033_arg_presc_00034, W, 1
10D6  12D5      	IORWF gbl_t0con, F
10D8            label92
10D8  51ED      	MOVF timer_setu_00033_arg_timer_00035, W, 1
10DA  6FC4      	MOVWF gbl_timer_0_start_value, 1
10DC  51EE      	MOVF timer_setu_00033_arg_timer_00035+D'1', W, 1
10DE  6FC5      	MOVWF gbl_timer_0_start_value+D'1', 1
10E0  8AF2      	BSF gbl_intcon,5
10E2  0012      	RETURN
10E4            ; } timer_setup_0 function end

	ORG 0x000010E4
10E4            usb_send_d_0001E
10E4            ; { usb_send_data ; function begin
10E4  EE00F0AE  	LFSR 0x00,  gbl_ep_in_buffer_location
10E8  50E9      	MOVF FSR0L, W
10EA  51EC      	MOVF usb_send_d_0001E_arg_ep, W, 1
10EC  6FF6      	MOVWF CompTempVar923, 1
10EE  90D8      	BCF STATUS,C
10F0  35F6      	RLCF CompTempVar923, W, 1
10F2  26E9      	ADDWF FSR0L, F
10F4  50EE      	MOVF POSTINC0, W
10F6  6FF4      	MOVWF usb_send_d_0001E_1_buffer, 1
10F8  50EF      	MOVF INDF0, W
10FA  6FF5      	MOVWF usb_send_d_0001E_1_buffer+D'1', 1
10FC  EE00F0A6  	LFSR 0x00,  gbl_ep_in_bd_location
1100  50E9      	MOVF FSR0L, W
1102  51EC      	MOVF usb_send_d_0001E_arg_ep, W, 1
1104  6FF6      	MOVWF CompTempVar926, 1
1106  90D8      	BCF STATUS,C
1108  35F6      	RLCF CompTempVar926, W, 1
110A  26E9      	ADDWF FSR0L, F
110C  50EE      	MOVF POSTINC0, W
110E  6FF2      	MOVWF usb_send_d_0001E_1_bd, 1
1110  50EF      	MOVF INDF0, W
1112  6FF3      	MOVWF usb_send_d_0001E_1_bd+D'1', 1
1114  51F3      	MOVF usb_send_d_0001E_1_bd+D'1', W, 1
1116  6EEA      	MOVWF FSR0H
1118  51F2      	MOVF usb_send_d_0001E_1_bd, W, 1
111A  6EE9      	MOVWF FSR0L
111C  AEEF      	BTFSS INDF0,7
111E  D022      	BRA	label93
1120  0E20      	MOVLW 0x20
1122  0102      	MOVLB 0x02
1124  6F00      	MOVWF CompTempVar927, 1
1126  6F07      	MOVWF CompTempVar927+D'7', 1
1128  6F0B      	MOVWF CompTempVar927+D'11', 1
112A  6F0F      	MOVWF CompTempVar927+D'15', 1
112C  0E21      	MOVLW 0x21
112E  6F01      	MOVWF CompTempVar927+D'1', 1
1130  6F0E      	MOVWF CompTempVar927+D'14', 1
1132  0E27      	MOVLW 0x27
1134  6F05      	MOVWF CompTempVar927+D'5', 1
1136  0E64      	MOVLW 0x64
1138  6F02      	MOVWF CompTempVar927+D'2', 1
113A  0E69      	MOVLW 0x69
113C  6F0C      	MOVWF CompTempVar927+D'12', 1
113E  0E6E      	MOVLW 0x6E
1140  6F04      	MOVWF CompTempVar927+D'4', 1
1142  6F0A      	MOVWF CompTempVar927+D'10', 1
1144  0E6F      	MOVLW 0x6F
1146  6F03      	MOVWF CompTempVar927+D'3', 1
1148  6F08      	MOVWF CompTempVar927+D'8', 1
114A  0E74      	MOVLW 0x74
114C  6F06      	MOVWF CompTempVar927+D'6', 1
114E  6F0D      	MOVWF CompTempVar927+D'13', 1
1150  0E77      	MOVLW 0x77
1152  6F09      	MOVWF CompTempVar927+D'9', 1
1154  6B10      	CLRF CompTempVar927+D'16', 1
1156  0E02      	MOVLW HIGH(CompTempVar927+D'0')
1158  6F3F      	MOVWF serial_pri_00012_arg_str+D'1', 1
115A  0E00      	MOVLW LOW(CompTempVar927+D'0')
115C  6F3E      	MOVWF serial_pri_00012_arg_str, 1
115E  EC8CF000  	CALL serial_pri_00012
1162  0012      	RETURN
1164            label93
1164  6BF1      	CLRF usb_send_d_0001E_1_count, 1
1166            label94
1166  51EF      	MOVF usb_send_d_0001E_arg_send_count, W, 1
1168  61F1      	CPFSLT usb_send_d_0001E_1_count, 1
116A  D013      	BRA	label95
116C  51EE      	MOVF usb_send_d_0001E_arg_data+D'1', W, 1
116E  6EEA      	MOVWF FSR0H
1170  51ED      	MOVF usb_send_d_0001E_arg_data, W, 1
1172  6EE9      	MOVWF FSR0L
1174  51F1      	MOVF usb_send_d_0001E_1_count, W, 1
1176  6FF6      	MOVWF CompTempVar931, 1
1178  51F6      	MOVF CompTempVar931, W, 1
117A  26E9      	ADDWF FSR0L, F
117C  50EF      	MOVF INDF0, W
117E  6FF7      	MOVWF CompTempVar932, 1
1180  51F5      	MOVF usb_send_d_0001E_1_buffer+D'1', W, 1
1182  6EEA      	MOVWF FSR0H
1184  51F4      	MOVF usb_send_d_0001E_1_buffer, W, 1
1186  25F1      	ADDWF usb_send_d_0001E_1_count, W, 1
1188  6EE9      	MOVWF FSR0L
118A  51F7      	MOVF CompTempVar932, W, 1
118C  6EEF      	MOVWF INDF0
118E  2BF1      	INCF usb_send_d_0001E_1_count, F, 1
1190  D7EA      	BRA	label94
1192            label95
1192  51F3      	MOVF usb_send_d_0001E_1_bd+D'1', W, 1
1194  6EEA      	MOVWF FSR0H
1196  29F2      	INCF usb_send_d_0001E_1_bd, W, 1
1198  6EE9      	MOVWF FSR0L
119A  51F1      	MOVF usb_send_d_0001E_1_count, W, 1
119C  6EEF      	MOVWF INDF0
119E  06E9      	DECF FSR0L, F
11A0  0E02      	MOVLW 0x02
11A2  26E9      	ADDWF FSR0L, F
11A4  2AE9      	INCF FSR0L, F
11A6  51F4      	MOVF usb_send_d_0001E_1_buffer, W, 1
11A8  6FF6      	MOVWF CompTempVar933, 1
11AA  51F5      	MOVF usb_send_d_0001E_1_buffer+D'1', W, 1
11AC  6EEF      	MOVWF INDF0
11AE  06E9      	DECF FSR0L, F
11B0  51F6      	MOVF CompTempVar933, W, 1
11B2  6EEF      	MOVWF INDF0
11B4  A1F0      	BTFSS usb_send_d_0001E_arg_first,0, 1
11B6  D005      	BRA	label96
11B8  51F3      	MOVF usb_send_d_0001E_1_bd+D'1', W, 1
11BA  6EEA      	MOVWF FSR0H
11BC  51F2      	MOVF usb_send_d_0001E_1_bd, W, 1
11BE  6EE9      	MOVWF FSR0L
11C0  9CEF      	BCF INDF0,6
11C2            label96
11C2  51F3      	MOVF usb_send_d_0001E_1_bd+D'1', W, 1
11C4  6EEA      	MOVWF FSR0H
11C6  51F2      	MOVF usb_send_d_0001E_1_bd, W, 1
11C8  6EE9      	MOVWF FSR0L
11CA  0E40      	MOVLW 0x40
11CC  1AEF      	XORWF INDF0, F
11CE  9AEF      	BCF INDF0,5
11D0  98EF      	BCF INDF0,4
11D2  86EF      	BSF INDF0,3
11D4  94EF      	BCF INDF0,2
11D6  92EF      	BCF INDF0,1
11D8  90EF      	BCF INDF0,0
11DA  8EEF      	BSF INDF0,7
11DC  0012      	RETURN
11DE            ; } usb_send_data function end

	ORG 0x000011DE
11DE            usb_get_st_00021
11DE            ; { usb_get_state ; function begin
11DE  0100      	MOVLB 0x00
11E0  51D9      	MOVF gbl_usb_state, W, 1
11E2  6FEB      	MOVWF CompTempVarRet943, 1
11E4  0012      	RETURN
11E6            ; } usb_get_state function end

	ORG 0x000011E6
11E6            tick_get_c_00030
11E6            ; { tick_get_count ; function begin
11E6  0100      	MOVLB 0x00
11E8  91EB      	BCF tick_get_c_00030_1_my_store_gie,0, 1
11EA  BEF2      	BTFSC gbl_intcon,7
11EC  81EB      	BSF tick_get_c_00030_1_my_store_gie,0, 1
11EE            label97
11EE  9EF2      	BCF gbl_intcon,7
11F0  BEF2      	BTFSC gbl_intcon,7
11F2  D7FD      	BRA	label97
11F4  51C2      	MOVF gbl_22_tick, W, 1
11F6  6FEC      	MOVWF tick_get_c_00030_1_result, 1
11F8  51C3      	MOVF gbl_22_tick+D'1', W, 1
11FA  6FED      	MOVWF tick_get_c_00030_1_result+D'1', 1
11FC  B1EB      	BTFSC tick_get_c_00030_1_my_store_gie,0, 1
11FE  8EF2      	BSF gbl_intcon,7
1200  A1EB      	BTFSS tick_get_c_00030_1_my_store_gie,0, 1
1202  9EF2      	BCF gbl_intcon,7
1204  51EC      	MOVF tick_get_c_00030_1_result, W, 1
1206  6FEE      	MOVWF CompTempVarRet840, 1
1208  51ED      	MOVF tick_get_c_00030_1_result+D'1', W, 1
120A  6FEF      	MOVWF CompTempVarRet840+D'1', 1
120C  0012      	RETURN
120E            ; } tick_get_count function end

	ORG 0x0000120E
120E            tick_calc__00031
120E            ; { tick_calc_diff ; function begin
120E  51EB      	MOVF tick_calc__00031_arg_a, W, 1
1210  5DED      	SUBWF tick_calc__00031_arg_b, W, 1
1212  51EC      	MOVF tick_calc__00031_arg_a+D'1', W, 1
1214  63EE      	CPFSEQ tick_calc__00031_arg_b+D'1', 1
1216  5DEE      	SUBWF tick_calc__00031_arg_b+D'1', W, 1
1218  E307      	BNC	label98
121A  51EB      	MOVF tick_calc__00031_arg_a, W, 1
121C  5DED      	SUBWF tick_calc__00031_arg_b, W, 1
121E  6FEF      	MOVWF CompTempVarRet841, 1
1220  51EC      	MOVF tick_calc__00031_arg_a+D'1', W, 1
1222  59EE      	SUBWFB tick_calc__00031_arg_b+D'1', W, 1
1224  6FF0      	MOVWF CompTempVarRet841+D'1', 1
1226  0012      	RETURN
1228            label98
1228  51EB      	MOVF tick_calc__00031_arg_a, W, 1
122A  08FF      	SUBLW 0xFF
122C  6FF2      	MOVWF CompTempVar848, 1
122E  0EFF      	MOVLW 0xFF
1230  55EC      	SUBFWB tick_calc__00031_arg_a+D'1', W, 1
1232  6FF1      	MOVWF CompTempVar845, 1
1234  51ED      	MOVF tick_calc__00031_arg_b, W, 1
1236  27F2      	ADDWF CompTempVar848, F, 1
1238  51EE      	MOVF tick_calc__00031_arg_b+D'1', W, 1
123A  6FF3      	MOVWF CompTempVar849, 1
123C  51F1      	MOVF CompTempVar845, W, 1
123E  23F3      	ADDWFC CompTempVar849, F, 1
1240  2BF2      	INCF CompTempVar848, F, 1
1242  B4D8      	BTFSC STATUS,Z
1244  2BF3      	INCF CompTempVar849, F, 1
1246  51F2      	MOVF CompTempVar848, W, 1
1248  6FEF      	MOVWF CompTempVarRet841, 1
124A  51F3      	MOVF CompTempVar849, W, 1
124C  6FF0      	MOVWF CompTempVarRet841+D'1', 1
124E  0012      	RETURN
1250            ; } tick_calc_diff function end

	ORG 0x00001250
1250            initialise_00000
1250            ; { initialise ; function begin
1250  6A92      	CLRF gbl_trisa
1252  6A80      	CLRF gbl_porta
1254  0E01      	MOVLW 0x01
1256  6E93      	MOVWF gbl_trisb
1258  6A81      	CLRF gbl_portb
125A  6A94      	CLRF gbl_trisc
125C  6A82      	CLRF gbl_portc
125E  6AC2      	CLRF gbl_adcon0
1260  0E0F      	MOVLW 0x0F
1262  6EC1      	MOVWF gbl_adcon1
1264  866D      	BSF gbl_ucon,3
1266  9EF1      	BCF gbl_intcon2,7
1268  0100      	MOVLB 0x00
126A  91EB      	BCF timer_setu_00033_arg_mode_8_bit,0, 1
126C  69EC      	SETF timer_setu_00033_arg_presc_00034, 1
126E  0E8A      	MOVLW 0x8A
1270  6FED      	MOVWF timer_setu_00033_arg_timer_00035, 1
1272  0EE8      	MOVLW 0xE8
1274  6FEE      	MOVWF timer_setu_00033_arg_timer_00035+D'1', 1
1276  EC5CF008  	CALL timer_setu_00033
127A  EC50F008  	CALL turn_usb_i_0002F
127E  8CF2      	BSF gbl_intcon,6
1280  8EF2      	BSF gbl_intcon,7
1282  EC55F008  	CALL timer_star_00036
1286  0012      	RETURN
1288            ; } initialise function end

	ORG 0x00001288
1288            main
1288            ; { main ; function begin
1288  EC28F009  	CALL initialise_00000
128C  6BE2      	CLRF main_1_tick_marker, 1
128E  6BE3      	CLRF main_1_tick_marker+D'1', 1
1290  6BE6      	CLRF main_1_left_count, 1
1292  6BE7      	CLRF main_1_check_count, 1
1294            label99
1294  ECF3F008  	CALL tick_get_c_00030
1298  51EE      	MOVF CompTempVarRet840, W, 1
129A  6FE4      	MOVWF main_1_test_tick, 1
129C  51EF      	MOVF CompTempVarRet840+D'1', W, 1
129E  6FE5      	MOVWF main_1_test_tick+D'1', 1
12A0  51E2      	MOVF main_1_tick_marker, W, 1
12A2  6FEB      	MOVWF tick_calc__00031_arg_a, 1
12A4  51E3      	MOVF main_1_tick_marker+D'1', W, 1
12A6  6FEC      	MOVWF tick_calc__00031_arg_a+D'1', 1
12A8  51E4      	MOVF main_1_test_tick, W, 1
12AA  6FED      	MOVWF tick_calc__00031_arg_b, 1
12AC  51E5      	MOVF main_1_test_tick+D'1', W, 1
12AE  6FEE      	MOVWF tick_calc__00031_arg_b+D'1', 1
12B0  EC07F009  	CALL tick_calc__00031
12B4  0E03      	MOVLW 0x03
12B6  65EF      	CPFSGT CompTempVarRet841, 1
12B8  67F0      	TSTFSZ CompTempVarRet841+D'1', 1
12BA  D001      	BRA	label100
12BC  D028      	BRA	label102
12BE            label100
12BE  51E4      	MOVF main_1_test_tick, W, 1
12C0  6FE2      	MOVWF main_1_tick_marker, 1
12C2  51E5      	MOVF main_1_test_tick+D'1', W, 1
12C4  6FE3      	MOVWF main_1_tick_marker+D'1', 1
12C6  2BE6      	INCF main_1_left_count, F, 1
12C8  2BE7      	INCF main_1_check_count, F, 1
12CA  0E05      	MOVLW 0x05
12CC  63E7      	CPFSEQ main_1_check_count, 1
12CE  D01F      	BRA	label102
12D0  6BE7      	CLRF main_1_check_count, 1
12D2  ECEFF008  	CALL usb_get_st_00021
12D6  0E03      	MOVLW 0x03
12D8  63EB      	CPFSEQ CompTempVarRet943, 1
12DA  D016      	BRA	label101
12DC  6BE8      	CLRF main_1_buffer, 1
12DE  51E6      	MOVF main_1_left_count, W, 1
12E0  0800      	SUBLW 0x00
12E2  6FE9      	MOVWF main_1_buffer+D'1', 1
12E4  6BEA      	CLRF main_1_buffer+D'2', 1
12E6  51E9      	MOVF main_1_buffer+D'1', W, 1
12E8  11E8      	IORWF main_1_buffer, W, 1
12EA  6FEB      	MOVWF CompTempVar805, 1
12EC  51EA      	MOVF main_1_buffer+D'2', W, 1
12EE  11EB      	IORWF CompTempVar805, W, 1
12F0  E00B      	BZ	label101
12F2  0E01      	MOVLW 0x01
12F4  6FEC      	MOVWF usb_send_d_0001E_arg_ep, 1
12F6  0E00      	MOVLW HIGH(main_1_buffer+D'0')
12F8  6FEE      	MOVWF usb_send_d_0001E_arg_data+D'1', 1
12FA  0EE8      	MOVLW LOW(main_1_buffer+D'0')
12FC  6FED      	MOVWF usb_send_d_0001E_arg_data, 1
12FE  0E03      	MOVLW 0x03
1300  6FEF      	MOVWF usb_send_d_0001E_arg_send_count, 1
1302  91F0      	BCF usb_send_d_0001E_arg_first,0, 1
1304  EC72F008  	CALL usb_send_d_0001E
1308            label101
1308  0100      	MOVLB 0x00
130A  6BE6      	CLRF main_1_left_count, 1
130C  6BE7      	CLRF main_1_check_count, 1
130E            label102
130E  A1D2      	BTFSS gbl_isJiggling,0, 1
1310  D000      	BRA	label103
1312            label103
1312  A081      	BTFSS gbl_portb,0
1314  D7BF      	BRA	label99
1316  0E64      	MOVLW 0x64
1318  6FEB      	MOVWF delay_ms_00000_arg_del, 1
131A  EC06F000  	CALL delay_ms_00000
131E  A081      	BTFSS gbl_portb,0
1320  D7B9      	BRA	label99
1322  A1D2      	BTFSS gbl_isJiggling,0, 1
1324  D003      	BRA	label104
1326  81D2      	BSF gbl_isJiggling,0, 1
1328  8281      	BSF gbl_portb,1
132A  D7B4      	BRA	label99
132C            label104
132C  91D2      	BCF gbl_isJiggling,0, 1
132E  9281      	BCF gbl_portb,1
1330  D7B1      	BRA	label99
1332            ; } main function end

	ORG 0x00001332
1332            _startup
1332  0100      	MOVLB 0x00
1334  91D2      	BCF gbl_isJiggling,0, 1
1336  6A5E      	CLRF gbl_20_tick
1338  6A5F      	CLRF gbl_20_tick+D'1'
133A  6BD3      	CLRF gbl_do_task, 1
133C  93D2      	BCF gbl_receive,1, 1
133E  6BD4      	CLRF gbl_send_to, 1
1340  6BD5      	CLRF gbl_tx_start, 1
1342  6BD6      	CLRF gbl_tx_end, 1
1344  6BD7      	CLRF gbl_rx_start, 1
1346  6BD8      	CLRF gbl_rx_end, 1
1348  6BC2      	CLRF gbl_22_tick, 1
134A  6BC3      	CLRF gbl_22_tick+D'1', 1
134C  6BC4      	CLRF gbl_timer_0_start_value, 1
134E  6BC5      	CLRF gbl_timer_0_start_value+D'1', 1
1350  6BD9      	CLRF gbl_usb_state, 1
1352  0E05      	MOVLW HIGH(gbl_buffer_0_in+D'0')
1354  6FDF      	MOVWF CompGblVar105, 1
1356  0E08      	MOVLW LOW(gbl_buffer_0_in+D'0')
1358  6FAE      	MOVWF gbl_ep_in_buffer_location, 1
135A  51DF      	MOVF CompGblVar105, W, 1
135C  6FAF      	MOVWF gbl_ep_in_buffer_location+D'1', 1
135E  0E05      	MOVLW HIGH(gbl_buffer_1_in+D'0')
1360  6FE0      	MOVWF CompGblVar106, 1
1362  0E10      	MOVLW LOW(gbl_buffer_1_in+D'0')
1364  6FB0      	MOVWF gbl_ep_in_buffer_location+D'2', 1
1366  51E0      	MOVF CompGblVar106, W, 1
1368  6FB1      	MOVWF gbl_ep_in_buffer_location+D'3', 1
136A  0E05      	MOVLW HIGH(gbl_buffer_0_out+D'0')
136C  6FE1      	MOVWF CompGblVar107, 1
136E  0E00      	MOVLW LOW(gbl_buffer_0_out+D'0')
1370  6FB2      	MOVWF gbl_ep_out_buffer_location, 1
1372  51E1      	MOVF CompGblVar107, W, 1
1374  6FB3      	MOVWF gbl_ep_out_buffer_location+D'1', 1
1376  6BB4      	CLRF gbl_ep_out_buffer_location+D'2', 1
1378  6BB5      	CLRF gbl_ep_out_buffer_location+D'3', 1
137A  0E08      	MOVLW 0x08
137C  6FB6      	MOVWF gbl_ep_in_buffer_size, 1
137E  6BB7      	CLRF gbl_ep_in_buffer_size+D'1', 1
1380  0E08      	MOVLW 0x08
1382  6FB8      	MOVWF gbl_ep_in_buffer_size+D'2', 1
1384  6BB9      	CLRF gbl_ep_in_buffer_size+D'3', 1
1386  0E08      	MOVLW 0x08
1388  6FBA      	MOVWF gbl_ep_out_buffer_size, 1
138A  6BBB      	CLRF gbl_ep_out_buffer_size+D'1', 1
138C  6BBC      	CLRF gbl_ep_out_buffer_size+D'2', 1
138E  6BBD      	CLRF gbl_ep_out_buffer_size+D'3', 1
1390  6A59      	CLRF gbl_port_shadow
1392  6A5A      	CLRF gbl_port_shadow+D'1'
1394  6A5B      	CLRF gbl_port_shadow+D'2'
1396  6A5C      	CLRF gbl_port_shadow+D'3'
1398  6A5D      	CLRF gbl_port_shadow+D'4'
139A  0E12      	MOVLW 0x12
139C  6F8C      	MOVWF gbl_my_device_descriptor, 1
139E  0E01      	MOVLW 0x01
13A0  6F8D      	MOVWF gbl_my_device_descriptor+D'1', 1
13A2  0E10      	MOVLW 0x10
13A4  6F8E      	MOVWF gbl_my_device_descriptor+D'2', 1
13A6  0E01      	MOVLW 0x01
13A8  6F8F      	MOVWF gbl_my_device_descriptor+D'3', 1
13AA  6B90      	CLRF gbl_my_device_descriptor+D'4', 1
13AC  6B91      	CLRF gbl_my_device_descriptor+D'5', 1
13AE  6B92      	CLRF gbl_my_device_descriptor+D'6', 1
13B0  0E08      	MOVLW 0x08
13B2  6F93      	MOVWF gbl_my_device_descriptor+D'7', 1
13B4  0ED8      	MOVLW 0xD8
13B6  6F94      	MOVWF gbl_my_device_descriptor+D'8', 1
13B8  0E04      	MOVLW 0x04
13BA  6F95      	MOVWF gbl_my_device_descriptor+D'9', 1
13BC  0E0C      	MOVLW 0x0C
13BE  6F96      	MOVWF gbl_my_device_descriptor+D'10', 1
13C0  6B97      	CLRF gbl_my_device_descriptor+D'11', 1
13C2  6B98      	CLRF gbl_my_device_descriptor+D'12', 1
13C4  0E02      	MOVLW 0x02
13C6  6F99      	MOVWF gbl_my_device_descriptor+D'13', 1
13C8  0E01      	MOVLW 0x01
13CA  6F9A      	MOVWF gbl_my_device_descriptor+D'14', 1
13CC  0E02      	MOVLW 0x02
13CE  6F9B      	MOVWF gbl_my_device_descriptor+D'15', 1
13D0  6B9C      	CLRF gbl_my_device_descriptor+D'16', 1
13D2  0E01      	MOVLW 0x01
13D4  6F9D      	MOVWF gbl_my_device_descriptor+D'17', 1
13D6  0E05      	MOVLW 0x05
13D8  6E05      	MOVWF gbl_mouse_report_descriptor
13DA  0E01      	MOVLW 0x01
13DC  6E06      	MOVWF gbl_mouse_report_descriptor+D'1'
13DE  0E09      	MOVLW 0x09
13E0  6E07      	MOVWF gbl_mouse_report_descriptor+D'2'
13E2  0E02      	MOVLW 0x02
13E4  6E08      	MOVWF gbl_mouse_report_descriptor+D'3'
13E6  0EA1      	MOVLW 0xA1
13E8  6E09      	MOVWF gbl_mouse_report_descriptor+D'4'
13EA  0E01      	MOVLW 0x01
13EC  6E0A      	MOVWF gbl_mouse_report_descriptor+D'5'
13EE  0E09      	MOVLW 0x09
13F0  6E0B      	MOVWF gbl_mouse_report_descriptor+D'6'
13F2  0E01      	MOVLW 0x01
13F4  6E0C      	MOVWF gbl_mouse_report_descriptor+D'7'
13F6  0EA1      	MOVLW 0xA1
13F8  6E0D      	MOVWF gbl_mouse_report_descriptor+D'8'
13FA  6A0E      	CLRF gbl_mouse_report_descriptor+D'9'
13FC  0E05      	MOVLW 0x05
13FE  6E0F      	MOVWF gbl_mouse_report_descriptor+D'10'
1400  0E09      	MOVLW 0x09
1402  6E10      	MOVWF gbl_mouse_report_descriptor+D'11'
1404  0E19      	MOVLW 0x19
1406  6E11      	MOVWF gbl_mouse_report_descriptor+D'12'
1408  0E01      	MOVLW 0x01
140A  6E12      	MOVWF gbl_mouse_report_descriptor+D'13'
140C  0E29      	MOVLW 0x29
140E  6E13      	MOVWF gbl_mouse_report_descriptor+D'14'
1410  0E03      	MOVLW 0x03
1412  6E14      	MOVWF gbl_mouse_report_descriptor+D'15'
1414  0E15      	MOVLW 0x15
1416  6E15      	MOVWF gbl_mouse_report_descriptor+D'16'
1418  6A16      	CLRF gbl_mouse_report_descriptor+D'17'
141A  0E25      	MOVLW 0x25
141C  6E17      	MOVWF gbl_mouse_report_descriptor+D'18'
141E  0E01      	MOVLW 0x01
1420  6E18      	MOVWF gbl_mouse_report_descriptor+D'19'
1422  0E95      	MOVLW 0x95
1424  6E19      	MOVWF gbl_mouse_report_descriptor+D'20'
1426  0E03      	MOVLW 0x03
1428  6E1A      	MOVWF gbl_mouse_report_descriptor+D'21'
142A  0E75      	MOVLW 0x75
142C  6E1B      	MOVWF gbl_mouse_report_descriptor+D'22'
142E  0E01      	MOVLW 0x01
1430  6E1C      	MOVWF gbl_mouse_report_descriptor+D'23'
1432  0E81      	MOVLW 0x81
1434  6E1D      	MOVWF gbl_mouse_report_descriptor+D'24'
1436  0E02      	MOVLW 0x02
1438  6E1E      	MOVWF gbl_mouse_report_descriptor+D'25'
143A  0E95      	MOVLW 0x95
143C  6E1F      	MOVWF gbl_mouse_report_descriptor+D'26'
143E  0E01      	MOVLW 0x01
1440  6E20      	MOVWF gbl_mouse_report_descriptor+D'27'
1442  0E75      	MOVLW 0x75
1444  6E21      	MOVWF gbl_mouse_report_descriptor+D'28'
1446  0E05      	MOVLW 0x05
1448  6E22      	MOVWF gbl_mouse_report_descriptor+D'29'
144A  0E81      	MOVLW 0x81
144C  6E23      	MOVWF gbl_mouse_report_descriptor+D'30'
144E  0E01      	MOVLW 0x01
1450  6E24      	MOVWF gbl_mouse_report_descriptor+D'31'
1452  0E05      	MOVLW 0x05
1454  6E25      	MOVWF gbl_mouse_report_descriptor+D'32'
1456  0E01      	MOVLW 0x01
1458  6E26      	MOVWF gbl_mouse_report_descriptor+D'33'
145A  0E09      	MOVLW 0x09
145C  6E27      	MOVWF gbl_mouse_report_descriptor+D'34'
145E  0E30      	MOVLW 0x30
1460  6E28      	MOVWF gbl_mouse_report_descriptor+D'35'
1462  0E09      	MOVLW 0x09
1464  6E29      	MOVWF gbl_mouse_report_descriptor+D'36'
1466  0E31      	MOVLW 0x31
1468  6E2A      	MOVWF gbl_mouse_report_descriptor+D'37'
146A  0E15      	MOVLW 0x15
146C  6E2B      	MOVWF gbl_mouse_report_descriptor+D'38'
146E  0E81      	MOVLW 0x81
1470  6E2C      	MOVWF gbl_mouse_report_descriptor+D'39'
1472  0E25      	MOVLW 0x25
1474  6E2D      	MOVWF gbl_mouse_report_descriptor+D'40'
1476  0E7F      	MOVLW 0x7F
1478  6E2E      	MOVWF gbl_mouse_report_descriptor+D'41'
147A  0E75      	MOVLW 0x75
147C  6E2F      	MOVWF gbl_mouse_report_descriptor+D'42'
147E  0E08      	MOVLW 0x08
1480  6E30      	MOVWF gbl_mouse_report_descriptor+D'43'
1482  0E95      	MOVLW 0x95
1484  6E31      	MOVWF gbl_mouse_report_descriptor+D'44'
1486  0E02      	MOVLW 0x02
1488  6E32      	MOVWF gbl_mouse_report_descriptor+D'45'
148A  0E81      	MOVLW 0x81
148C  6E33      	MOVWF gbl_mouse_report_descriptor+D'46'
148E  0E06      	MOVLW 0x06
1490  6E34      	MOVWF gbl_mouse_report_descriptor+D'47'
1492  0EC0      	MOVLW 0xC0
1494  6E35      	MOVWF gbl_mouse_report_descriptor+D'48'
1496  0EC0      	MOVLW 0xC0
1498  6E36      	MOVWF gbl_mouse_report_descriptor+D'49'
149A  0E09      	MOVLW 0x09
149C  6E37      	MOVWF gbl_complete_mouse_configuration
149E  0E02      	MOVLW 0x02
14A0  6E38      	MOVWF gbl_complete_mouse_configuration+D'1'
14A2  0E22      	MOVLW 0x22
14A4  6E39      	MOVWF gbl_complete_mouse_configuration+D'2'
14A6  6A3A      	CLRF gbl_complete_mouse_configuration+D'3'
14A8  0E01      	MOVLW 0x01
14AA  6E3B      	MOVWF gbl_complete_mouse_configuration+D'4'
14AC  0E01      	MOVLW 0x01
14AE  6E3C      	MOVWF gbl_complete_mouse_configuration+D'5'
14B0  6A3D      	CLRF gbl_complete_mouse_configuration+D'6'
14B2  0E80      	MOVLW 0x80
14B4  6E3E      	MOVWF gbl_complete_mouse_configuration+D'7'
14B6  0E64      	MOVLW 0x64
14B8  6E3F      	MOVWF gbl_complete_mouse_configuration+D'8'
14BA  0E09      	MOVLW 0x09
14BC  6E40      	MOVWF gbl_complete_mouse_configuration+D'9'
14BE  0E04      	MOVLW 0x04
14C0  6E41      	MOVWF gbl_complete_mouse_configuration+D'10'
14C2  6A42      	CLRF gbl_complete_mouse_configuration+D'11'
14C4  6A43      	CLRF gbl_complete_mouse_configuration+D'12'
14C6  0E01      	MOVLW 0x01
14C8  6E44      	MOVWF gbl_complete_mouse_configuration+D'13'
14CA  0E03      	MOVLW 0x03
14CC  6E45      	MOVWF gbl_complete_mouse_configuration+D'14'
14CE  0E01      	MOVLW 0x01
14D0  6E46      	MOVWF gbl_complete_mouse_configuration+D'15'
14D2  0E02      	MOVLW 0x02
14D4  6E47      	MOVWF gbl_complete_mouse_configuration+D'16'
14D6  6A48      	CLRF gbl_complete_mouse_configuration+D'17'
14D8  0E09      	MOVLW 0x09
14DA  6E49      	MOVWF gbl_complete_mouse_configuration+D'18'
14DC  0E21      	MOVLW 0x21
14DE  6E4A      	MOVWF gbl_complete_mouse_configuration+D'19'
14E0  0E10      	MOVLW 0x10
14E2  6E4B      	MOVWF gbl_complete_mouse_configuration+D'20'
14E4  0E01      	MOVLW 0x01
14E6  6E4C      	MOVWF gbl_complete_mouse_configuration+D'21'
14E8  6A4D      	CLRF gbl_complete_mouse_configuration+D'22'
14EA  0E01      	MOVLW 0x01
14EC  6E4E      	MOVWF gbl_complete_mouse_configuration+D'23'
14EE  0E22      	MOVLW 0x22
14F0  6E4F      	MOVWF gbl_complete_mouse_configuration+D'24'
14F2  0E32      	MOVLW 0x32
14F4  6E50      	MOVWF gbl_complete_mouse_configuration+D'25'
14F6  6A51      	CLRF gbl_complete_mouse_configuration+D'26'
14F8  0E07      	MOVLW 0x07
14FA  6E52      	MOVWF gbl_complete_mouse_configuration+D'27'
14FC  0E05      	MOVLW 0x05
14FE  6E53      	MOVWF gbl_complete_mouse_configuration+D'28'
1500  0E81      	MOVLW 0x81
1502  6E54      	MOVWF gbl_complete_mouse_configuration+D'29'
1504  0E03      	MOVLW 0x03
1506  6E55      	MOVWF gbl_complete_mouse_configuration+D'30'
1508  0E03      	MOVLW 0x03
150A  6E56      	MOVWF gbl_complete_mouse_configuration+D'31'
150C  6A57      	CLRF gbl_complete_mouse_configuration+D'32'
150E  0E0A      	MOVLW 0x0A
1510  6E58      	MOVWF gbl_complete_mouse_configuration+D'33'
1512  0E04      	MOVLW 0x04
1514  6FBE      	MOVWF gbl_string_00, 1
1516  0E03      	MOVLW 0x03
1518  6FBF      	MOVWF gbl_string_00+D'1', 1
151A  0E09      	MOVLW 0x09
151C  6FC0      	MOVWF gbl_string_00+D'2', 1
151E  0E04      	MOVLW 0x04
1520  6FC1      	MOVWF gbl_string_00+D'3', 1
1522  0E18      	MOVLW 0x18
1524  6F60      	MOVWF gbl_string_01, 1
1526  0E03      	MOVLW 0x03
1528  6F61      	MOVWF gbl_string_01+D'1', 1
152A  0E50      	MOVLW 0x50
152C  6F62      	MOVWF gbl_string_01+D'2', 1
152E  6B63      	CLRF gbl_string_01+D'3', 1
1530  0E69      	MOVLW 0x69
1532  6F64      	MOVWF gbl_string_01+D'4', 1
1534  6B65      	CLRF gbl_string_01+D'5', 1
1536  0E63      	MOVLW 0x63
1538  6F66      	MOVWF gbl_string_01+D'6', 1
153A  6B67      	CLRF gbl_string_01+D'7', 1
153C  0E50      	MOVLW 0x50
153E  6F68      	MOVWF gbl_string_01+D'8', 1
1540  6B69      	CLRF gbl_string_01+D'9', 1
1542  0E61      	MOVLW 0x61
1544  6F6A      	MOVWF gbl_string_01+D'10', 1
1546  6B6B      	CLRF gbl_string_01+D'11', 1
1548  0E63      	MOVLW 0x63
154A  6F6C      	MOVWF gbl_string_01+D'12', 1
154C  6B6D      	CLRF gbl_string_01+D'13', 1
154E  0E6B      	MOVLW 0x6B
1550  6F6E      	MOVWF gbl_string_01+D'14', 1
1552  6B6F      	CLRF gbl_string_01+D'15', 1
1554  0E20      	MOVLW 0x20
1556  6F70      	MOVWF gbl_string_01+D'16', 1
1558  6B71      	CLRF gbl_string_01+D'17', 1
155A  0E49      	MOVLW 0x49
155C  6F72      	MOVWF gbl_string_01+D'18', 1
155E  6B73      	CLRF gbl_string_01+D'19', 1
1560  0E6E      	MOVLW 0x6E
1562  6F74      	MOVWF gbl_string_01+D'20', 1
1564  6B75      	CLRF gbl_string_01+D'21', 1
1566  0E63      	MOVLW 0x63
1568  6F76      	MOVWF gbl_string_01+D'22', 1
156A  6B77      	CLRF gbl_string_01+D'23', 1
156C  0E14      	MOVLW 0x14
156E  6F78      	MOVWF gbl_string_02, 1
1570  0E03      	MOVLW 0x03
1572  6F79      	MOVWF gbl_string_02+D'1', 1
1574  0E4A      	MOVLW 0x4A
1576  6F7A      	MOVWF gbl_string_02+D'2', 1
1578  6B7B      	CLRF gbl_string_02+D'3', 1
157A  0E6F      	MOVLW 0x6F
157C  6F7C      	MOVWF gbl_string_02+D'4', 1
157E  6B7D      	CLRF gbl_string_02+D'5', 1
1580  0E79      	MOVLW 0x79
1582  6F7E      	MOVWF gbl_string_02+D'6', 1
1584  6B7F      	CLRF gbl_string_02+D'7', 1
1586  0E2D      	MOVLW 0x2D
1588  6F80      	MOVWF gbl_string_02+D'8', 1
158A  6B81      	CLRF gbl_string_02+D'9', 1
158C  0E4D      	MOVLW 0x4D
158E  6F82      	MOVWF gbl_string_02+D'10', 1
1590  6B83      	CLRF gbl_string_02+D'11', 1
1592  0E6F      	MOVLW 0x6F
1594  6F84      	MOVWF gbl_string_02+D'12', 1
1596  6B85      	CLRF gbl_string_02+D'13', 1
1598  0E75      	MOVLW 0x75
159A  6F86      	MOVWF gbl_string_02+D'14', 1
159C  6B87      	CLRF gbl_string_02+D'15', 1
159E  0E73      	MOVLW 0x73
15A0  6F88      	MOVWF gbl_string_02+D'16', 1
15A2  6B89      	CLRF gbl_string_02+D'17', 1
15A4  0E65      	MOVLW 0x65
15A6  6F8A      	MOVWF gbl_string_02+D'18', 1
15A8  6B8B      	CLRF gbl_string_02+D'19', 1
15AA  EF44F009  	GOTO	main
	ORG 0x000015AE
15AE            interrupt
15AE            ; { interrupt ; function begin
15AE  CFEAF001  	MOVFF FSR0H,  Int1Context
15B2  CFE9F002  	MOVFF FSR0L,  Int1Context+D'1'
15B6  CFF4F003  	MOVFF PRODH,  Int1Context+D'2'
15BA  CFF3F004  	MOVFF PRODL,  Int1Context+D'3'
15BE  EC3AF008  	CALL usb_handle_0001D
15C2  A4F2      	BTFSS gbl_intcon,2
15C4  D011      	BRA	label106
15C6  0100      	MOVLB 0x00
15C8  6BF9      	CLRF interrupt_6_start_value+D'1', 1
15CA  51C4      	MOVF gbl_timer_0_start_value, W, 1
15CC  24D6      	ADDWF gbl_tmr0l, W
15CE  6FF8      	MOVWF interrupt_6_start_value, 1
15D0  51C5      	MOVF gbl_timer_0_start_value+D'1', W, 1
15D2  23F9      	ADDWFC interrupt_6_start_value+D'1', F, 1
15D4  2BF8      	INCF interrupt_6_start_value, F, 1
15D6  B4D8      	BTFSC STATUS,Z
15D8  2BF9      	INCF interrupt_6_start_value+D'1', F, 1
15DA  51F9      	MOVF interrupt_6_start_value+D'1', W, 1
15DC  6ED7      	MOVWF gbl_tmr0h
15DE  51F8      	MOVF interrupt_6_start_value, W, 1
15E0  6ED6      	MOVWF gbl_tmr0l
15E2  94F2      	BCF gbl_intcon,2
15E4  EC4DF008  	CALL timer_0_ca_00038
15E8            label106
15E8  C004FFF3  	MOVFF Int1Context+D'3',  PRODL
15EC  C003FFF4  	MOVFF Int1Context+D'2',  PRODH
15F0  C002FFE9  	MOVFF Int1Context+D'1',  FSR0L
15F4  C001FFEA  	MOVFF Int1Context,  FSR0H
15F8  0011      	RETFIE 1
15FA            ; } interrupt function end

	ORG 0x00300000
300000  0E30      	DW 0x0E30
300002  1E3E      	DW 0x1E3E
	ORG 0x00300004
300004  00FF      	DW 0x00FF
300006  FF80      	DW 0xFF80
	ORG 0x00300008
300008  C00F      	DW 0xC00F
30000A  E00F      	DW 0xE00F
30000C  400F      	DW 0x400F
